	.file	"main.cpp"
	.section .rdata,"dr"
_ZStL19piecewise_construct:
	.space 1
	.section	.text$_ZN9__gnu_cxx5__ops16__iter_less_iterEv,"x"
	.linkonce discard
	.globl	_ZN9__gnu_cxx5__ops16__iter_less_iterEv
	.def	_ZN9__gnu_cxx5__ops16__iter_less_iterEv;	.scl	2;	.type	32;	.endef
	.seh_proc	_ZN9__gnu_cxx5__ops16__iter_less_iterEv
_ZN9__gnu_cxx5__ops16__iter_less_iterEv:
.LFB268:
	pushq	%rbp
	.seh_pushreg	%rbp
	movq	%rsp, %rbp
	.seh_setframe	%rbp, 0
	.seh_endprologue
	popq	%rbp
	ret
	.seh_endproc
	.section	.text$_ZN9__gnu_cxx5__ops15__iter_comp_valENS0_15_Iter_less_iterE,"x"
	.linkonce discard
	.globl	_ZN9__gnu_cxx5__ops15__iter_comp_valENS0_15_Iter_less_iterE
	.def	_ZN9__gnu_cxx5__ops15__iter_comp_valENS0_15_Iter_less_iterE;	.scl	2;	.type	32;	.endef
	.seh_proc	_ZN9__gnu_cxx5__ops15__iter_comp_valENS0_15_Iter_less_iterE
_ZN9__gnu_cxx5__ops15__iter_comp_valENS0_15_Iter_less_iterE:
.LFB271:
	pushq	%rbp
	.seh_pushreg	%rbp
	movq	%rsp, %rbp
	.seh_setframe	%rbp, 0
	.seh_endprologue
	movb	%cl, 16(%rbp)
	popq	%rbp
	ret
	.seh_endproc
	.section	.text$_ZN9__gnu_cxx5__ops15__val_comp_iterENS0_15_Iter_less_iterE,"x"
	.linkonce discard
	.globl	_ZN9__gnu_cxx5__ops15__val_comp_iterENS0_15_Iter_less_iterE
	.def	_ZN9__gnu_cxx5__ops15__val_comp_iterENS0_15_Iter_less_iterE;	.scl	2;	.type	32;	.endef
	.seh_proc	_ZN9__gnu_cxx5__ops15__val_comp_iterENS0_15_Iter_less_iterE
_ZN9__gnu_cxx5__ops15__val_comp_iterENS0_15_Iter_less_iterE:
.LFB274:
	pushq	%rbp
	.seh_pushreg	%rbp
	movq	%rsp, %rbp
	.seh_setframe	%rbp, 0
	.seh_endprologue
	movb	%cl, 16(%rbp)
	popq	%rbp
	ret
	.seh_endproc
	.section	.text$_ZSt4__lgx,"x"
	.linkonce discard
	.globl	_ZSt4__lgx
	.def	_ZSt4__lgx;	.scl	2;	.type	32;	.endef
	.seh_proc	_ZSt4__lgx
_ZSt4__lgx:
.LFB359:
	pushq	%rbp
	.seh_pushreg	%rbp
	movq	%rsp, %rbp
	.seh_setframe	%rbp, 0
	.seh_endprologue
	movq	%rcx, 16(%rbp)
	movq	16(%rbp), %rax
	bsrq	%rax, %rax
	xorq	$63, %rax
	cltq
	movl	$63, %edx
	subq	%rax, %rdx
	movq	%rdx, %rax
	popq	%rbp
	ret
	.seh_endproc
	.section	.text$_ZNSt11char_traitsIcE7compareEPKcS2_y,"x"
	.linkonce discard
	.globl	_ZNSt11char_traitsIcE7compareEPKcS2_y
	.def	_ZNSt11char_traitsIcE7compareEPKcS2_y;	.scl	2;	.type	32;	.endef
	.seh_proc	_ZNSt11char_traitsIcE7compareEPKcS2_y
_ZNSt11char_traitsIcE7compareEPKcS2_y:
.LFB390:
	pushq	%rbp
	.seh_pushreg	%rbp
	movq	%rsp, %rbp
	.seh_setframe	%rbp, 0
	subq	$32, %rsp
	.seh_stackalloc	32
	.seh_endprologue
	movq	%rcx, 16(%rbp)
	movq	%rdx, 24(%rbp)
	movq	%r8, 32(%rbp)
	cmpq	$0, 32(%rbp)
	jne	.L10
	movl	$0, %eax
	jmp	.L11
.L10:
	movq	32(%rbp), %rdx
	movq	24(%rbp), %rax
	movq	%rdx, %r8
	movq	%rax, %rdx
	movq	16(%rbp), %rcx
	call	memcmp
.L11:
	addq	$32, %rsp
	popq	%rbp
	ret
	.seh_endproc
	.section	.text$_ZnwyPv,"x"
	.linkonce discard
	.globl	_ZnwyPv
	.def	_ZnwyPv;	.scl	2;	.type	32;	.endef
	.seh_proc	_ZnwyPv
_ZnwyPv:
.LFB507:
	pushq	%rbp
	.seh_pushreg	%rbp
	movq	%rsp, %rbp
	.seh_setframe	%rbp, 0
	.seh_endprologue
	movq	%rcx, 16(%rbp)
	movq	%rdx, 24(%rbp)
	movq	24(%rbp), %rax
	popq	%rbp
	ret
	.seh_endproc
	.section	.text$_ZdlPvS_,"x"
	.linkonce discard
	.globl	_ZdlPvS_
	.def	_ZdlPvS_;	.scl	2;	.type	32;	.endef
	.seh_proc	_ZdlPvS_
_ZdlPvS_:
.LFB509:
	pushq	%rbp
	.seh_pushreg	%rbp
	movq	%rsp, %rbp
	.seh_setframe	%rbp, 0
	.seh_endprologue
	movq	%rcx, 16(%rbp)
	movq	%rdx, 24(%rbp)
	nop
	popq	%rbp
	ret
	.seh_endproc
	.section	.text$_ZStorSt13_Ios_OpenmodeS_,"x"
	.linkonce discard
	.globl	_ZStorSt13_Ios_OpenmodeS_
	.def	_ZStorSt13_Ios_OpenmodeS_;	.scl	2;	.type	32;	.endef
	.seh_proc	_ZStorSt13_Ios_OpenmodeS_
_ZStorSt13_Ios_OpenmodeS_:
.LFB1110:
	pushq	%rbp
	.seh_pushreg	%rbp
	movq	%rsp, %rbp
	.seh_setframe	%rbp, 0
	.seh_endprologue
	movl	%ecx, 16(%rbp)
	movl	%edx, 24(%rbp)
	movl	16(%rbp), %eax
	orl	24(%rbp), %eax
	popq	%rbp
	ret
	.seh_endproc
.lcomm _ZStL8__ioinit,1,1
	.section	.text$_ZN13Keywords_rateltERKS_,"x"
	.linkonce discard
	.align 2
	.globl	_ZN13Keywords_rateltERKS_
	.def	_ZN13Keywords_rateltERKS_;	.scl	2;	.type	32;	.endef
	.seh_proc	_ZN13Keywords_rateltERKS_
_ZN13Keywords_rateltERKS_:
.LFB2395:
	pushq	%rbp
	.seh_pushreg	%rbp
	movq	%rsp, %rbp
	.seh_setframe	%rbp, 0
	.seh_endprologue
	movq	%rcx, 16(%rbp)
	movq	%rdx, 24(%rbp)
	movq	16(%rbp), %rax
	movsd	8(%rax), %xmm1
	movq	24(%rbp), %rax
	movsd	8(%rax), %xmm0
	ucomisd	%xmm1, %xmm0
	seta	%al
	popq	%rbp
	ret
	.seh_endproc
	.globl	_Z5wordsB5cxx11
	.bss
	.align 32
_Z5wordsB5cxx11:
	.space 704000
	.globl	words_weight
	.align 32
words_weight:
	.space 176000
	.globl	_Z8keywordsB5cxx11
	.align 32
_Z8keywordsB5cxx11:
	.space 11520
	.globl	keywords_rate
	.align 32
keywords_rate:
	.space 5760
	.globl	_Z12invalid_dictB5cxx11
	.align 32
_Z12invalid_dictB5cxx11:
	.space 48
	.globl	words_num
	.align 4
words_num:
	.space 4
	.globl	keywords_num
	.align 4
keywords_num:
	.space 4
	.section .rdata,"dr"
.LC0:
	.ascii "weighed_words.txt\0"
	.align 8
.LC1:
	.ascii "open weighed_words.txt error!\12\0"
	.text
	.globl	_Z9get_wordsv
	.def	_Z9get_wordsv;	.scl	2;	.type	32;	.endef
	.seh_proc	_Z9get_wordsv
_Z9get_wordsv:
.LFB2400:
	pushq	%rbp
	.seh_pushreg	%rbp
	pushq	%rbx
	.seh_pushreg	%rbx
	subq	$520, %rsp
	.seh_stackalloc	520
	leaq	128(%rsp), %rbp
	.seh_setframe	%rbp, 128
	.seh_endprologue
	leaq	-96(%rbp), %rax
	movq	%rax, %rcx
.LEHB0:
	call	_ZNSt14basic_ifstreamIcSt11char_traitsIcEEC1Ev
.LEHE0:
	leaq	-96(%rbp), %rax
	movl	$8, %r8d
	leaq	.LC0(%rip), %rdx
	movq	%rax, %rcx
.LEHB1:
	call	_ZNSt14basic_ifstreamIcSt11char_traitsIcEE4openEPKcSt13_Ios_Openmode
	leaq	-96(%rbp), %rax
	addq	$208, %rax
	movq	%rax, %rcx
	call	_ZNKSt9basic_iosIcSt11char_traitsIcEE4goodEv
	xorl	$1, %eax
	testb	%al, %al
	je	.L20
	leaq	.LC1(%rip), %rdx
	movq	.refptr._ZSt4cout(%rip), %rcx
	call	_ZStlsISt11char_traitsIcEERSt13basic_ostreamIcT_ES5_PKc
	movl	$1, %ecx
	call	exit
.L20:
	movl	$0, 380(%rbp)
.L22:
	movl	380(%rbp), %eax
	cltq
	salq	$5, %rax
	movq	%rax, %rdx
	leaq	_Z5wordsB5cxx11(%rip), %rax
	addq	%rax, %rdx
	leaq	-96(%rbp), %rax
	movq	%rax, %rcx
	call	_ZStrsIcSt11char_traitsIcESaIcEERSt13basic_istreamIT_T0_ES7_RNSt7__cxx1112basic_stringIS4_S5_T1_EE
	movq	(%rax), %rdx
	subq	$24, %rdx
	movq	(%rdx), %rdx
	addq	%rdx, %rax
	movq	%rax, %rcx
	call	_ZNKSt9basic_iosIcSt11char_traitsIcEEcvbEv
	testb	%al, %al
	je	.L21
	movl	380(%rbp), %eax
	leal	1(%rax), %edx
	movl	%edx, 380(%rbp)
	cltq
	leaq	0(,%rax,8), %rdx
	leaq	words_weight(%rip), %rax
	addq	%rax, %rdx
	leaq	-96(%rbp), %rax
	movq	%rax, %rcx
	call	_ZNSirsERd
	jmp	.L22
.L21:
	movl	380(%rbp), %eax
	movl	%eax, words_num(%rip)
	leaq	-96(%rbp), %rax
	movq	%rax, %rcx
	call	_ZNSt14basic_ifstreamIcSt11char_traitsIcEE5closeEv
.LEHE1:
	leaq	-96(%rbp), %rax
	movq	%rax, %rcx
	call	_ZNSt14basic_ifstreamIcSt11char_traitsIcEED1Ev
	jmp	.L25
.L24:
	movq	%rax, %rbx
	leaq	-96(%rbp), %rax
	movq	%rax, %rcx
	call	_ZNSt14basic_ifstreamIcSt11char_traitsIcEED1Ev
	movq	%rbx, %rax
	movq	%rax, %rcx
.LEHB2:
	call	_Unwind_Resume
	nop
.LEHE2:
.L25:
	addq	$520, %rsp
	popq	%rbx
	popq	%rbp
	ret
	.def	__gxx_personality_seh0;	.scl	2;	.type	32;	.endef
	.seh_handler	__gxx_personality_seh0, @unwind, @except
	.seh_handlerdata
.LLSDA2400:
	.byte	0xff
	.byte	0xff
	.byte	0x1
	.uleb128 .LLSDACSE2400-.LLSDACSB2400
.LLSDACSB2400:
	.uleb128 .LEHB0-.LFB2400
	.uleb128 .LEHE0-.LEHB0
	.uleb128 0
	.uleb128 0
	.uleb128 .LEHB1-.LFB2400
	.uleb128 .LEHE1-.LEHB1
	.uleb128 .L24-.LFB2400
	.uleb128 0
	.uleb128 .LEHB2-.LFB2400
	.uleb128 .LEHE2-.LEHB2
	.uleb128 0
	.uleb128 0
.LLSDACSE2400:
	.text
	.seh_endproc
	.section .rdata,"dr"
.LC2:
	.ascii "clearly_arranged_keywords.txt\0"
	.align 8
.LC3:
	.ascii "open clearly_arranged_keywords.txt error!\12\0"
	.text
	.globl	_Z12get_keywordsv
	.def	_Z12get_keywordsv;	.scl	2;	.type	32;	.endef
	.seh_proc	_Z12get_keywordsv
_Z12get_keywordsv:
.LFB2401:
	pushq	%rbp
	.seh_pushreg	%rbp
	pushq	%rbx
	.seh_pushreg	%rbx
	subq	$632, %rsp
	.seh_stackalloc	632
	leaq	128(%rsp), %rbp
	.seh_setframe	%rbp, 128
	.seh_endprologue
	leaq	16(%rbp), %rax
	movq	%rax, %rcx
.LEHB3:
	call	_ZNSt14basic_ifstreamIcSt11char_traitsIcEEC1Ev
.LEHE3:
	leaq	16(%rbp), %rax
	movl	$8, %r8d
	leaq	.LC2(%rip), %rdx
	movq	%rax, %rcx
.LEHB4:
	call	_ZNSt14basic_ifstreamIcSt11char_traitsIcEE4openEPKcSt13_Ios_Openmode
	leaq	16(%rbp), %rax
	addq	$208, %rax
	movq	%rax, %rcx
	call	_ZNKSt9basic_iosIcSt11char_traitsIcEE4goodEv
	xorl	$1, %eax
	testb	%al, %al
	je	.L27
	leaq	.LC3(%rip), %rdx
	movq	.refptr._ZSt4cout(%rip), %rcx
	call	_ZStlsISt11char_traitsIcEERSt13basic_ostreamIcT_ES5_PKc
	movl	$1, %ecx
	call	exit
.L27:
	movl	$0, 492(%rbp)
.L29:
	leaq	-96(%rbp), %rdx
	leaq	16(%rbp), %rax
	movl	$100, %r8d
	movq	%rax, %rcx
	call	_ZNSi7getlineEPcx
	movq	(%rax), %rdx
	subq	$24, %rdx
	movq	(%rdx), %rdx
	addq	%rdx, %rax
	movq	%rax, %rcx
	call	_ZNKSt9basic_iosIcSt11char_traitsIcEEcvbEv
	testb	%al, %al
	je	.L28
	movl	492(%rbp), %eax
	leal	1(%rax), %edx
	movl	%edx, 492(%rbp)
	cltq
	salq	$5, %rax
	movq	%rax, %rdx
	leaq	_Z8keywordsB5cxx11(%rip), %rax
	leaq	(%rdx,%rax), %rcx
	leaq	-96(%rbp), %rax
	movq	%rax, %rdx
	call	_ZNSt7__cxx1112basic_stringIcSt11char_traitsIcESaIcEEaSEPKc
	jmp	.L29
.L28:
	movl	492(%rbp), %eax
	movl	%eax, keywords_num(%rip)
	leaq	16(%rbp), %rax
	movq	%rax, %rcx
	call	_ZNSt14basic_ifstreamIcSt11char_traitsIcEE5closeEv
.LEHE4:
	leaq	16(%rbp), %rax
	movq	%rax, %rcx
	call	_ZNSt14basic_ifstreamIcSt11char_traitsIcEED1Ev
	jmp	.L32
.L31:
	movq	%rax, %rbx
	leaq	16(%rbp), %rax
	movq	%rax, %rcx
	call	_ZNSt14basic_ifstreamIcSt11char_traitsIcEED1Ev
	movq	%rbx, %rax
	movq	%rax, %rcx
.LEHB5:
	call	_Unwind_Resume
	nop
.LEHE5:
.L32:
	addq	$632, %rsp
	popq	%rbx
	popq	%rbp
	ret
	.seh_handler	__gxx_personality_seh0, @unwind, @except
	.seh_handlerdata
.LLSDA2401:
	.byte	0xff
	.byte	0xff
	.byte	0x1
	.uleb128 .LLSDACSE2401-.LLSDACSB2401
.LLSDACSB2401:
	.uleb128 .LEHB3-.LFB2401
	.uleb128 .LEHE3-.LEHB3
	.uleb128 0
	.uleb128 0
	.uleb128 .LEHB4-.LFB2401
	.uleb128 .LEHE4-.LEHB4
	.uleb128 .L31-.LFB2401
	.uleb128 0
	.uleb128 .LEHB5-.LFB2401
	.uleb128 .LEHE5-.LEHB5
	.uleb128 0
	.uleb128 0
.LLSDACSE2401:
	.text
	.seh_endproc
	.globl	_Z13binary_searchRNSt7__cxx1112basic_stringIcSt11char_traitsIcESaIcEEE
	.def	_Z13binary_searchRNSt7__cxx1112basic_stringIcSt11char_traitsIcESaIcEEE;	.scl	2;	.type	32;	.endef
	.seh_proc	_Z13binary_searchRNSt7__cxx1112basic_stringIcSt11char_traitsIcESaIcEEE
_Z13binary_searchRNSt7__cxx1112basic_stringIcSt11char_traitsIcESaIcEEE:
.LFB2402:
	pushq	%rbp
	.seh_pushreg	%rbp
	movq	%rsp, %rbp
	.seh_setframe	%rbp, 0
	subq	$48, %rsp
	.seh_stackalloc	48
	.seh_endprologue
	movq	%rcx, 16(%rbp)
	movl	$0, -4(%rbp)
	movl	words_num(%rip), %eax
	subl	$1, %eax
	movl	%eax, -8(%rbp)
.L39:
	movl	-4(%rbp), %eax
	cmpl	-8(%rbp), %eax
	jge	.L34
	movl	-4(%rbp), %edx
	movl	-8(%rbp), %eax
	addl	%edx, %eax
	movl	%eax, %edx
	shrl	$31, %edx
	addl	%edx, %eax
	sarl	%eax
	movl	%eax, -12(%rbp)
	movl	-12(%rbp), %eax
	cltq
	salq	$5, %rax
	movq	%rax, %rdx
	leaq	_Z5wordsB5cxx11(%rip), %rax
	addq	%rdx, %rax
	movq	%rax, %rdx
	movq	16(%rbp), %rcx
	call	_ZSteqIcEN9__gnu_cxx11__enable_ifIXsrSt9__is_charIT_E7__valueEbE6__typeERKNSt7__cxx1112basic_stringIS3_St11char_traitsIS3_ESaIS3_EEESE_
	testb	%al, %al
	je	.L35
	movl	-12(%rbp), %eax
	jmp	.L36
.L35:
	movl	-12(%rbp), %eax
	cltq
	salq	$5, %rax
	movq	%rax, %rdx
	leaq	_Z5wordsB5cxx11(%rip), %rax
	addq	%rdx, %rax
	movq	%rax, %rdx
	movq	16(%rbp), %rcx
	call	_ZStltIcSt11char_traitsIcESaIcEEbRKNSt7__cxx1112basic_stringIT_T0_T1_EESA_
	testb	%al, %al
	je	.L37
	movl	-12(%rbp), %eax
	subl	$1, %eax
	movl	%eax, -8(%rbp)
	jmp	.L38
.L37:
	movl	-12(%rbp), %eax
	addl	$1, %eax
	movl	%eax, -4(%rbp)
	nop
.L38:
	jmp	.L39
.L34:
	movl	$-1, %eax
.L36:
	addq	$48, %rsp
	popq	%rbp
	ret
	.seh_endproc
	.section .rdata,"dr"
.LC4:
	.ascii "test.data\0"
.LC5:
	.ascii "open test.data error~\12\0"
.LC6:
	.ascii "output_words.txt\0"
.LC7:
	.ascii "open output.txt error!\12\0"
.LC8:
	.ascii "http\0\0"
.LC10:
	.ascii "HTTP\0\0"
.LC11:
	.ascii "Http\0\0"
.LC12:
	.ascii "https\0\0"
.LC13:
	.ascii "HTTPS\0\0"
.LC14:
	.ascii "www\0\0"
.LC15:
	.ascii "WWW\0\0"
.LC16:
	.ascii " \0"
	.text
	.globl	_Z13extract_wordsv
	.def	_Z13extract_wordsv;	.scl	2;	.type	32;	.endef
	.seh_proc	_Z13extract_wordsv
_Z13extract_wordsv:
.LFB2403:
	pushq	%rbp
	.seh_pushreg	%rbp
	pushq	%rbx
	.seh_pushreg	%rbx
	subq	$3000, %rsp
	.seh_stackalloc	3000
	leaq	128(%rsp), %rbp
	.seh_setframe	%rbp, 128
	.seh_endprologue
	leaq	2368(%rbp), %rax
	movq	%rax, %rcx
.LEHB6:
	call	_ZNSt14basic_ifstreamIcSt11char_traitsIcEEC1Ev
.LEHE6:
	leaq	1904(%rbp), %rax
	movq	%rax, %rcx
.LEHB7:
	call	_ZNSt14basic_ofstreamIcSt11char_traitsIcEEC1Ev
.LEHE7:
	leaq	2368(%rbp), %rax
	movl	$8, %r8d
	leaq	.LC4(%rip), %rdx
	movq	%rax, %rcx
.LEHB8:
	call	_ZNSt14basic_ifstreamIcSt11char_traitsIcEE4openEPKcSt13_Ios_Openmode
	leaq	2368(%rbp), %rax
	addq	$208, %rax
	movq	%rax, %rcx
	call	_ZNKSt9basic_iosIcSt11char_traitsIcEE4goodEv
	xorl	$1, %eax
	testb	%al, %al
	je	.L41
	leaq	.LC5(%rip), %rdx
	movq	.refptr._ZSt4cout(%rip), %rcx
	call	_ZStlsISt11char_traitsIcEERSt13basic_ostreamIcT_ES5_PKc
	movl	$1, %ecx
	call	exit
.L41:
	movl	$32, %edx
	movl	$16, %ecx
	call	_ZStorSt13_Ios_OpenmodeS_
	movl	%eax, %edx
	leaq	1904(%rbp), %rax
	movl	%edx, %r8d
	leaq	.LC6(%rip), %rdx
	movq	%rax, %rcx
	call	_ZNSt14basic_ofstreamIcSt11char_traitsIcEE4openEPKcSt13_Ios_Openmode
	leaq	1904(%rbp), %rax
	addq	$200, %rax
	movq	%rax, %rcx
	call	_ZNKSt9basic_iosIcSt11char_traitsIcEE4goodEv
	xorl	$1, %eax
	testb	%al, %al
	je	.L42
	leaq	.LC7(%rip), %rdx
	movq	.refptr._ZSt4cout(%rip), %rcx
	call	_ZStlsISt11char_traitsIcEERSt13basic_ostreamIcT_ES5_PKc
	movl	$2, %ecx
	call	exit
.L42:
	movl	$0, 1900(%rbp)
	leaq	1472(%rbp), %rax
	movl	$0, %r9d
	movsd	.LC9(%rip), %xmm2
	leaq	.LC8(%rip), %rdx
	movq	%rax, %rcx
	call	_ZN4WordC1EPKcdi
	leaq	1248(%rbp), %rax
	movl	$0, %r9d
	movsd	.LC9(%rip), %xmm2
	leaq	.LC10(%rip), %rdx
	movq	%rax, %rcx
	call	_ZN4WordC1EPKcdi
	leaq	1024(%rbp), %rax
	movl	$0, %r9d
	movsd	.LC9(%rip), %xmm2
	leaq	.LC11(%rip), %rdx
	movq	%rax, %rcx
	call	_ZN4WordC1EPKcdi
	leaq	800(%rbp), %rax
	movl	$0, %r9d
	movsd	.LC9(%rip), %xmm2
	leaq	.LC12(%rip), %rdx
	movq	%rax, %rcx
	call	_ZN4WordC1EPKcdi
	leaq	576(%rbp), %rax
	movl	$0, %r9d
	movsd	.LC9(%rip), %xmm2
	leaq	.LC13(%rip), %rdx
	movq	%rax, %rcx
	call	_ZN4WordC1EPKcdi
	leaq	352(%rbp), %rax
	movl	$0, %r9d
	movsd	.LC9(%rip), %xmm2
	leaq	.LC14(%rip), %rdx
	movq	%rax, %rcx
	call	_ZN4WordC1EPKcdi
	leaq	128(%rbp), %rax
	movl	$0, %r9d
	movsd	.LC9(%rip), %xmm2
	leaq	.LC15(%rip), %rdx
	movq	%rax, %rcx
	call	_ZN4WordC1EPKcdi
.L62:
	leaq	1900(%rbp), %rdx
	leaq	2368(%rbp), %rax
	movq	%rax, %rcx
	call	_ZNSirsERi
	movq	(%rax), %rdx
	subq	$24, %rdx
	movq	(%rdx), %rdx
	addq	%rdx, %rax
	movq	%rax, %rcx
	call	_ZNKSt9basic_iosIcSt11char_traitsIcEEcvbEv
	testb	%al, %al
	je	.L43
	leaq	2368(%rbp), %rax
	movq	%rax, %rcx
	call	_ZNSi3getEv
	leaq	2368(%rbp), %rax
	movq	%rax, %rcx
	call	_ZNSi3getEv
	leaq	2368(%rbp), %rax
	movq	%rax, %rcx
	call	_ZNSi3getEv
.L61:
	leaq	1696(%rbp), %rdx
	leaq	2368(%rbp), %rax
	movq	%rax, %rcx
	call	_ZStrsIcSt11char_traitsIcEERSt13basic_istreamIT_T0_ES6_PS3_
	movq	(%rax), %rdx
	subq	$24, %rdx
	movq	(%rdx), %rdx
	addq	%rdx, %rax
	movq	%rax, %rcx
	call	_ZNKSt9basic_iosIcSt11char_traitsIcEEcvbEv
	testb	%al, %al
	je	.L62
	leaq	1696(%rbp), %rax
	movq	%rax, %rcx
	call	strlen
	movl	%eax, 2848(%rbp)
	movl	$0, 2852(%rbp)
.L59:
	movl	2852(%rbp), %eax
	cmpl	2848(%rbp), %eax
	jge	.L45
	movl	2852(%rbp), %eax
	movl	%eax, 2860(%rbp)
.L49:
	movl	2860(%rbp), %eax
	cmpl	2848(%rbp), %eax
	jge	.L46
	movl	2860(%rbp), %eax
	cltq
	movzbl	1696(%rbp,%rax), %eax
	cmpb	$64, %al
	jle	.L47
	movl	2860(%rbp), %eax
	cltq
	movzbl	1696(%rbp,%rax), %eax
	cmpb	$90, %al
	jle	.L48
	movl	2860(%rbp), %eax
	cltq
	movzbl	1696(%rbp,%rax), %eax
	cmpb	$96, %al
	jle	.L47
.L48:
	movl	2860(%rbp), %eax
	cltq
	movzbl	1696(%rbp,%rax), %eax
	cmpb	$122, %al
	jle	.L46
.L47:
	addl	$1, 2860(%rbp)
	jmp	.L49
.L46:
	movl	2860(%rbp), %eax
	movl	%eax, 2856(%rbp)
.L53:
	movl	2856(%rbp), %eax
	cmpl	2848(%rbp), %eax
	jge	.L50
	movl	2856(%rbp), %eax
	cltq
	movzbl	1696(%rbp,%rax), %eax
	cmpb	$64, %al
	jle	.L51
	movl	2856(%rbp), %eax
	cltq
	movzbl	1696(%rbp,%rax), %eax
	cmpb	$90, %al
	jle	.L52
.L51:
	movl	2856(%rbp), %eax
	cltq
	movzbl	1696(%rbp,%rax), %eax
	cmpb	$96, %al
	jle	.L50
	movl	2856(%rbp), %eax
	cltq
	movzbl	1696(%rbp,%rax), %eax
	cmpb	$122, %al
	jg	.L50
.L52:
	addl	$1, 2856(%rbp)
	jmp	.L53
.L50:
	movl	2856(%rbp), %eax
	cltq
	movb	$0, 1696(%rbp,%rax)
	movl	2856(%rbp), %eax
	cmpl	2860(%rbp), %eax
	jle	.L54
	movl	1900(%rbp), %ecx
	movl	2860(%rbp), %eax
	cltq
	leaq	1696(%rbp), %rdx
	addq	%rax, %rdx
	leaq	-96(%rbp), %rax
	movl	%ecx, %r9d
	movsd	.LC9(%rip), %xmm2
	movq	%rax, %rcx
	call	_ZN4WordC1EPKcdi
	leaq	1472(%rbp), %rdx
	leaq	-96(%rbp), %rax
	movq	%rax, %rcx
	call	_ZN4WordeqERKS_
	testb	%al, %al
	jne	.L55
	leaq	1248(%rbp), %rdx
	leaq	-96(%rbp), %rax
	movq	%rax, %rcx
	call	_ZN4WordeqERKS_
	testb	%al, %al
	jne	.L55
	leaq	1024(%rbp), %rdx
	leaq	-96(%rbp), %rax
	movq	%rax, %rcx
	call	_ZN4WordeqERKS_
	testb	%al, %al
	jne	.L55
	leaq	800(%rbp), %rdx
	leaq	-96(%rbp), %rax
	movq	%rax, %rcx
	call	_ZN4WordeqERKS_
	testb	%al, %al
	jne	.L55
	leaq	576(%rbp), %rdx
	leaq	-96(%rbp), %rax
	movq	%rax, %rcx
	call	_ZN4WordeqERKS_
	testb	%al, %al
	jne	.L55
	leaq	352(%rbp), %rdx
	leaq	-96(%rbp), %rax
	movq	%rax, %rcx
	call	_ZN4WordeqERKS_
	testb	%al, %al
	jne	.L55
	leaq	128(%rbp), %rdx
	leaq	-96(%rbp), %rax
	movq	%rax, %rcx
	call	_ZN4WordeqERKS_
	testb	%al, %al
	je	.L56
.L55:
	movl	$1, %eax
	jmp	.L57
.L56:
	movl	$0, %eax
.L57:
	testb	%al, %al
	jne	.L68
	movl	112(%rbp), %ebx
	leaq	-96(%rbp), %rdx
	leaq	1904(%rbp), %rax
	movq	%rax, %rcx
	call	_ZStlsISt11char_traitsIcEERSt13basic_ostreamIcT_ES5_PKc
	leaq	.LC16(%rip), %rdx
	movq	%rax, %rcx
	call	_ZStlsISt11char_traitsIcEERSt13basic_ostreamIcT_ES5_PKc
	movl	%ebx, %edx
	movq	%rax, %rcx
	call	_ZNSolsEi
	movq	.refptr._ZSt4endlIcSt11char_traitsIcEERSt13basic_ostreamIT_T0_ES6_(%rip), %rdx
	movq	%rax, %rcx
	call	_ZNSolsEPFRSoS_E
.L54:
	movl	2856(%rbp), %eax
	addl	$1, %eax
	movl	%eax, 2852(%rbp)
	jmp	.L59
.L68:
	nop
.L45:
	leaq	2368(%rbp), %rax
	movq	%rax, %rcx
	call	_ZNSi4peekEv
	cmpl	$10, %eax
	sete	%al
	testb	%al, %al
	jne	.L69
	jmp	.L61
.L69:
	nop
	jmp	.L62
.L43:
	leaq	2368(%rbp), %rax
	movq	%rax, %rcx
	call	_ZNSt14basic_ifstreamIcSt11char_traitsIcEE5closeEv
	leaq	1904(%rbp), %rax
	movq	%rax, %rcx
	call	_ZNSt14basic_ofstreamIcSt11char_traitsIcEE5closeEv
.LEHE8:
	leaq	1904(%rbp), %rax
	movq	%rax, %rcx
	call	_ZNSt14basic_ofstreamIcSt11char_traitsIcEED1Ev
	leaq	2368(%rbp), %rax
	movq	%rax, %rcx
	call	_ZNSt14basic_ifstreamIcSt11char_traitsIcEED1Ev
	jmp	.L67
.L66:
	movq	%rax, %rbx
	leaq	1904(%rbp), %rax
	movq	%rax, %rcx
	call	_ZNSt14basic_ofstreamIcSt11char_traitsIcEED1Ev
	jmp	.L64
.L65:
	movq	%rax, %rbx
.L64:
	leaq	2368(%rbp), %rax
	movq	%rax, %rcx
	call	_ZNSt14basic_ifstreamIcSt11char_traitsIcEED1Ev
	movq	%rbx, %rax
	movq	%rax, %rcx
.LEHB9:
	call	_Unwind_Resume
	nop
.LEHE9:
.L67:
	addq	$3000, %rsp
	popq	%rbx
	popq	%rbp
	ret
	.seh_handler	__gxx_personality_seh0, @unwind, @except
	.seh_handlerdata
.LLSDA2403:
	.byte	0xff
	.byte	0xff
	.byte	0x1
	.uleb128 .LLSDACSE2403-.LLSDACSB2403
.LLSDACSB2403:
	.uleb128 .LEHB6-.LFB2403
	.uleb128 .LEHE6-.LEHB6
	.uleb128 0
	.uleb128 0
	.uleb128 .LEHB7-.LFB2403
	.uleb128 .LEHE7-.LEHB7
	.uleb128 .L65-.LFB2403
	.uleb128 0
	.uleb128 .LEHB8-.LFB2403
	.uleb128 .LEHE8-.LEHB8
	.uleb128 .L66-.LFB2403
	.uleb128 0
	.uleb128 .LEHB9-.LFB2403
	.uleb128 .LEHE9-.LEHB9
	.uleb128 0
	.uleb128 0
.LLSDACSE2403:
	.text
	.seh_endproc
	.section .rdata,"dr"
.LC17:
	.ascii "invalid_words.txt\0"
.LC18:
	.ascii "open invalid_words error!\0\0"
.LC19:
	.ascii "open output_words.txt error!\12\0"
.LC20:
	.ascii "output_valid_word.txt\0"
	.align 8
.LC21:
	.ascii "open output_valid_word.txt error!\12\0"
	.text
	.globl	_Z21discard_invalid_wordsv
	.def	_Z21discard_invalid_wordsv;	.scl	2;	.type	32;	.endef
	.seh_proc	_Z21discard_invalid_wordsv
_Z21discard_invalid_wordsv:
.LFB2404:
	pushq	%rbp
	.seh_pushreg	%rbp
	pushq	%rsi
	.seh_pushreg	%rsi
	pushq	%rbx
	.seh_pushreg	%rbx
	subq	$1392, %rsp
	.seh_stackalloc	1392
	leaq	128(%rsp), %rbp
	.seh_setframe	%rbp, 128
	.seh_endprologue
	leaq	736(%rbp), %rax
	movq	%rax, %rcx
.LEHB10:
	call	_ZNSt14basic_ifstreamIcSt11char_traitsIcEEC1Ev
.LEHE10:
	leaq	272(%rbp), %rax
	movq	%rax, %rcx
.LEHB11:
	call	_ZNSt14basic_ofstreamIcSt11char_traitsIcEEC1Ev
.LEHE11:
	leaq	736(%rbp), %rax
	movl	$8, %r8d
	leaq	.LC17(%rip), %rdx
	movq	%rax, %rcx
.LEHB12:
	call	_ZNSt14basic_ifstreamIcSt11char_traitsIcEE4openEPKcSt13_Ios_Openmode
	leaq	736(%rbp), %rax
	addq	$208, %rax
	movq	%rax, %rcx
	call	_ZNKSt9basic_iosIcSt11char_traitsIcEE4goodEv
	xorl	$1, %eax
	testb	%al, %al
	je	.L71
	leaq	.LC18(%rip), %rdx
	movq	.refptr._ZSt4cout(%rip), %rcx
	call	_ZStlsISt11char_traitsIcEERSt13basic_ostreamIcT_ES5_PKc
.LEHE12:
	movl	$3, %ecx
	call	exit
.L71:
	leaq	240(%rbp), %rax
	movq	%rax, %rcx
	call	_ZNSt7__cxx1112basic_stringIcSt11char_traitsIcESaIcEEC1Ev
.L73:
	leaq	240(%rbp), %rdx
	leaq	736(%rbp), %rax
	movq	%rax, %rcx
.LEHB13:
	call	_ZStrsIcSt11char_traitsIcESaIcEERSt13basic_istreamIT_T0_ES7_RNSt7__cxx1112basic_stringIS4_S5_T1_EE
	movq	(%rax), %rdx
	subq	$24, %rdx
	movq	(%rdx), %rdx
	addq	%rdx, %rax
	movq	%rax, %rcx
	call	_ZNKSt9basic_iosIcSt11char_traitsIcEEcvbEv
	testb	%al, %al
	je	.L72
	leaq	1216(%rbp), %rax
	leaq	240(%rbp), %rdx
	movq	%rdx, %r8
	leaq	_Z12invalid_dictB5cxx11(%rip), %rdx
	movq	%rax, %rcx
	call	_ZNSt3setINSt7__cxx1112basic_stringIcSt11char_traitsIcESaIcEEESt4lessIS5_ESaIS5_EE6insertERKS5_
	jmp	.L73
.L72:
	leaq	736(%rbp), %rax
	movq	%rax, %rcx
	call	_ZNSt14basic_ifstreamIcSt11char_traitsIcEE5closeEv
	leaq	736(%rbp), %rax
	movl	$8, %r8d
	leaq	.LC6(%rip), %rdx
	movq	%rax, %rcx
	call	_ZNSt14basic_ifstreamIcSt11char_traitsIcEE4openEPKcSt13_Ios_Openmode
	leaq	736(%rbp), %rax
	addq	$208, %rax
	movq	%rax, %rcx
	call	_ZNKSt9basic_iosIcSt11char_traitsIcEE4goodEv
	xorl	$1, %eax
	testb	%al, %al
	je	.L74
	leaq	.LC19(%rip), %rdx
	movq	.refptr._ZSt4cout(%rip), %rcx
	call	_ZStlsISt11char_traitsIcEERSt13basic_ostreamIcT_ES5_PKc
	movl	$4, %ecx
	call	exit
.L74:
	movl	$32, %edx
	movl	$16, %ecx
	call	_ZStorSt13_Ios_OpenmodeS_
	movl	%eax, %edx
	leaq	272(%rbp), %rax
	movl	%edx, %r8d
	leaq	.LC20(%rip), %rdx
	movq	%rax, %rcx
	call	_ZNSt14basic_ofstreamIcSt11char_traitsIcEE4openEPKcSt13_Ios_Openmode
	leaq	272(%rbp), %rax
	addq	$200, %rax
	movq	%rax, %rcx
	call	_ZNKSt9basic_iosIcSt11char_traitsIcEE4goodEv
	xorl	$1, %eax
	testb	%al, %al
	je	.L75
	leaq	.LC21(%rip), %rdx
	movq	.refptr._ZSt4cout(%rip), %rcx
	call	_ZStlsISt11char_traitsIcEERSt13basic_ostreamIcT_ES5_PKc
	movl	$5, %ecx
	call	exit
.L75:
	leaq	-96(%rbp), %rax
	movl	$0, %r9d
	movsd	.LC9(%rip), %xmm2
	movl	$0, %edx
	movq	%rax, %rcx
	call	_ZN4WordC1EPKcdi
.L82:
	leaq	-96(%rbp), %rdx
	leaq	736(%rbp), %rax
	movq	%rax, %rcx
	call	_ZStrsIcSt11char_traitsIcEERSt13basic_istreamIT_T0_ES6_PS3_
	movq	(%rax), %rdx
	subq	$24, %rdx
	movq	(%rdx), %rdx
	addq	%rdx, %rax
	movq	%rax, %rcx
	call	_ZNKSt9basic_iosIcSt11char_traitsIcEEcvbEv
	testb	%al, %al
	je	.L76
	leaq	-96(%rbp), %rax
	leaq	208(%rax), %rdx
	leaq	736(%rbp), %rax
	movq	%rax, %rcx
	call	_ZNSirsERi
	leaq	-96(%rbp), %rdx
	leaq	240(%rbp), %rax
	movq	%rax, %rcx
	call	_ZNSt7__cxx1112basic_stringIcSt11char_traitsIcESaIcEEaSEPKc
.LEHE13:
	movl	$0, %ebx
	movl	$0, %esi
	leaq	-96(%rbp), %rax
	movq	%rax, %rcx
	call	strlen
	cmpq	$2, %rax
	jbe	.L77
	leaq	_Z12invalid_dictB5cxx11(%rip), %rcx
	call	_ZNKSt3setINSt7__cxx1112basic_stringIcSt11char_traitsIcESaIcEEESt4lessIS5_ESaIS5_EE3endEv
	movq	%rax, 1232(%rbp)
	movl	$1, %ebx
	leaq	240(%rbp), %rax
	movq	%rax, %rdx
	leaq	_Z12invalid_dictB5cxx11(%rip), %rcx
.LEHB14:
	call	_ZNSt3setINSt7__cxx1112basic_stringIcSt11char_traitsIcESaIcEEESt4lessIS5_ESaIS5_EE4findERKS5_
.LEHE14:
	movq	%rax, 1248(%rbp)
	movl	$1, %esi
	leaq	1232(%rbp), %rdx
	leaq	1248(%rbp), %rax
	movq	%rax, %rcx
	call	_ZNKSt23_Rb_tree_const_iteratorINSt7__cxx1112basic_stringIcSt11char_traitsIcESaIcEEEEeqERKS6_
	testb	%al, %al
	je	.L77
	movl	$1, %eax
	jmp	.L78
.L77:
	movl	$0, %eax
.L78:
	testb	%sil, %sil
	testb	%bl, %bl
	testb	%al, %al
	je	.L82
	movl	112(%rbp), %ebx
	leaq	-96(%rbp), %rdx
	leaq	272(%rbp), %rax
	movq	%rax, %rcx
.LEHB15:
	call	_ZStlsISt11char_traitsIcEERSt13basic_ostreamIcT_ES5_PKc
	leaq	.LC16(%rip), %rdx
	movq	%rax, %rcx
	call	_ZStlsISt11char_traitsIcEERSt13basic_ostreamIcT_ES5_PKc
	movl	%ebx, %edx
	movq	%rax, %rcx
	call	_ZNSolsEi
	movq	.refptr._ZSt4endlIcSt11char_traitsIcEERSt13basic_ostreamIT_T0_ES6_(%rip), %rdx
	movq	%rax, %rcx
	call	_ZNSolsEPFRSoS_E
	jmp	.L82
.L76:
	leaq	736(%rbp), %rax
	movq	%rax, %rcx
	call	_ZNSt14basic_ifstreamIcSt11char_traitsIcEE5closeEv
	leaq	272(%rbp), %rax
	movq	%rax, %rcx
	call	_ZNSt14basic_ofstreamIcSt11char_traitsIcEE5closeEv
.LEHE15:
	leaq	240(%rbp), %rax
	movq	%rax, %rcx
	call	_ZNSt7__cxx1112basic_stringIcSt11char_traitsIcESaIcEED1Ev
	leaq	272(%rbp), %rax
	movq	%rax, %rcx
	call	_ZNSt14basic_ofstreamIcSt11char_traitsIcEED1Ev
	leaq	736(%rbp), %rax
	movq	%rax, %rcx
	call	_ZNSt14basic_ifstreamIcSt11char_traitsIcEED1Ev
	jmp	.L93
.L92:
	testb	%sil, %sil
	testb	%bl, %bl
	nop
	movq	%rax, %rbx
	jmp	.L86
.L91:
	movq	%rax, %rbx
.L86:
	leaq	240(%rbp), %rax
	movq	%rax, %rcx
	call	_ZNSt7__cxx1112basic_stringIcSt11char_traitsIcESaIcEED1Ev
	jmp	.L87
.L90:
	movq	%rax, %rbx
.L87:
	leaq	272(%rbp), %rax
	movq	%rax, %rcx
	call	_ZNSt14basic_ofstreamIcSt11char_traitsIcEED1Ev
	jmp	.L88
.L89:
	movq	%rax, %rbx
.L88:
	leaq	736(%rbp), %rax
	movq	%rax, %rcx
	call	_ZNSt14basic_ifstreamIcSt11char_traitsIcEED1Ev
	movq	%rbx, %rax
	movq	%rax, %rcx
.LEHB16:
	call	_Unwind_Resume
	nop
.LEHE16:
.L93:
	addq	$1392, %rsp
	popq	%rbx
	popq	%rsi
	popq	%rbp
	ret
	.seh_handler	__gxx_personality_seh0, @unwind, @except
	.seh_handlerdata
.LLSDA2404:
	.byte	0xff
	.byte	0xff
	.byte	0x1
	.uleb128 .LLSDACSE2404-.LLSDACSB2404
.LLSDACSB2404:
	.uleb128 .LEHB10-.LFB2404
	.uleb128 .LEHE10-.LEHB10
	.uleb128 0
	.uleb128 0
	.uleb128 .LEHB11-.LFB2404
	.uleb128 .LEHE11-.LEHB11
	.uleb128 .L89-.LFB2404
	.uleb128 0
	.uleb128 .LEHB12-.LFB2404
	.uleb128 .LEHE12-.LEHB12
	.uleb128 .L90-.LFB2404
	.uleb128 0
	.uleb128 .LEHB13-.LFB2404
	.uleb128 .LEHE13-.LEHB13
	.uleb128 .L91-.LFB2404
	.uleb128 0
	.uleb128 .LEHB14-.LFB2404
	.uleb128 .LEHE14-.LEHB14
	.uleb128 .L92-.LFB2404
	.uleb128 0
	.uleb128 .LEHB15-.LFB2404
	.uleb128 .LEHE15-.LEHB15
	.uleb128 .L91-.LFB2404
	.uleb128 0
	.uleb128 .LEHB16-.LFB2404
	.uleb128 .LEHE16-.LEHB16
	.uleb128 0
	.uleb128 0
.LLSDACSE2404:
	.text
	.seh_endproc
	.section .rdata,"dr"
.LC22:
	.ascii "words_rate.data\0"
.LC23:
	.ascii "open words_rate.data error!\12\0"
.LC24:
	.ascii "result.data\0"
.LC25:
	.ascii "open result.data error!\12\0"
.LC26:
	.ascii "existing_words.txt\0"
	.align 8
.LC27:
	.ascii "open existing_words.txt error!\12\0"
.LC28:
	.ascii "dbg_keywords_rate.txt\0"
	.align 8
.LC29:
	.ascii "open dbg_keywords_rate.txt error!\12\0"
.LC30:
	.ascii "dbg_words_rate.txt\0"
	.align 8
.LC31:
	.ascii "open dbg_words_rate.txt error!\12\0"
.LC32:
	.ascii "#$#\0"
	.text
	.globl	_Z16compute_keywordsv
	.def	_Z16compute_keywordsv;	.scl	2;	.type	32;	.endef
	.seh_proc	_Z16compute_keywordsv
_Z16compute_keywordsv:
.LFB2405:
	pushq	%rbp
	.seh_pushreg	%rbp
	pushq	%rdi
	.seh_pushreg	%rdi
	pushq	%rsi
	.seh_pushreg	%rsi
	pushq	%rbx
	.seh_pushreg	%rbx
	subq	$2984, %rsp
	.seh_stackalloc	2984
	leaq	128(%rsp), %rbp
	.seh_setframe	%rbp, 128
	movaps	%xmm6, 2832(%rbp)
	.seh_savexmm	%xmm6, 2960
	.seh_endprologue
	leaq	2304(%rbp), %rax
	movq	%rax, %rcx
.LEHB17:
	call	_ZNSt14basic_ifstreamIcSt11char_traitsIcEEC1Ev
.LEHE17:
	leaq	1824(%rbp), %rax
	movq	%rax, %rcx
.LEHB18:
	call	_ZNSt14basic_ifstreamIcSt11char_traitsIcEEC1Ev
.LEHE18:
	leaq	1360(%rbp), %rax
	movq	%rax, %rcx
.LEHB19:
	call	_ZNSt14basic_ofstreamIcSt11char_traitsIcEEC1Ev
.LEHE19:
	leaq	2304(%rbp), %rax
	movl	$8, %r8d
	leaq	.LC20(%rip), %rdx
	movq	%rax, %rcx
.LEHB20:
	call	_ZNSt14basic_ifstreamIcSt11char_traitsIcEE4openEPKcSt13_Ios_Openmode
	leaq	2304(%rbp), %rax
	addq	$208, %rax
	movq	%rax, %rcx
	call	_ZNKSt9basic_iosIcSt11char_traitsIcEE4goodEv
	xorl	$1, %eax
	testb	%al, %al
	je	.L95
	leaq	.LC21(%rip), %rdx
	movq	.refptr._ZSt4cout(%rip), %rcx
	call	_ZStlsISt11char_traitsIcEERSt13basic_ostreamIcT_ES5_PKc
	movl	$1, %ecx
	call	exit
.L95:
	leaq	1824(%rbp), %rax
	movl	$4, %r8d
	leaq	.LC22(%rip), %rdx
	movq	%rax, %rcx
	call	_ZNSt14basic_ifstreamIcSt11char_traitsIcEE4openEPKcSt13_Ios_Openmode
	leaq	1824(%rbp), %rax
	addq	$208, %rax
	movq	%rax, %rcx
	call	_ZNKSt9basic_iosIcSt11char_traitsIcEE4goodEv
	xorl	$1, %eax
	testb	%al, %al
	je	.L96
	leaq	.LC23(%rip), %rdx
	movq	.refptr._ZSt4cout(%rip), %rcx
	call	_ZStlsISt11char_traitsIcEERSt13basic_ostreamIcT_ES5_PKc
	movl	$1, %ecx
	call	exit
.L96:
	movl	$32, %edx
	movl	$16, %ecx
	call	_ZStorSt13_Ios_OpenmodeS_
	movl	%eax, %edx
	leaq	1360(%rbp), %rax
	movl	%edx, %r8d
	leaq	.LC24(%rip), %rdx
	movq	%rax, %rcx
	call	_ZNSt14basic_ofstreamIcSt11char_traitsIcEE4openEPKcSt13_Ios_Openmode
	leaq	1360(%rbp), %rax
	addq	$200, %rax
	movq	%rax, %rcx
	call	_ZNKSt9basic_iosIcSt11char_traitsIcEE4goodEv
	xorl	$1, %eax
	testb	%al, %al
	je	.L97
	leaq	.LC25(%rip), %rdx
	movq	.refptr._ZSt4cout(%rip), %rcx
	call	_ZStlsISt11char_traitsIcEERSt13basic_ostreamIcT_ES5_PKc
	movl	$1, %ecx
	call	exit
.L97:
	leaq	896(%rbp), %rax
	movq	%rax, %rcx
	call	_ZNSt14basic_ofstreamIcSt11char_traitsIcEEC1Ev
.LEHE20:
	movl	$32, %edx
	movl	$16, %ecx
	call	_ZStorSt13_Ios_OpenmodeS_
	movl	%eax, %edx
	leaq	896(%rbp), %rax
	movl	%edx, %r8d
	leaq	.LC26(%rip), %rdx
	movq	%rax, %rcx
.LEHB21:
	call	_ZNSt14basic_ofstreamIcSt11char_traitsIcEE4openEPKcSt13_Ios_Openmode
	leaq	896(%rbp), %rax
	addq	$200, %rax
	movq	%rax, %rcx
	call	_ZNKSt9basic_iosIcSt11char_traitsIcEE4goodEv
	xorl	$1, %eax
	testb	%al, %al
	je	.L98
	leaq	.LC27(%rip), %rdx
	movq	.refptr._ZSt4cout(%rip), %rcx
	call	_ZStlsISt11char_traitsIcEERSt13basic_ostreamIcT_ES5_PKc
	movl	$1, %ecx
	call	exit
.L98:
	leaq	432(%rbp), %rax
	movq	%rax, %rcx
	call	_ZNSt14basic_ofstreamIcSt11char_traitsIcEEC1Ev
.LEHE21:
	movl	$32, %edx
	movl	$16, %ecx
	call	_ZStorSt13_Ios_OpenmodeS_
	movl	%eax, %edx
	leaq	432(%rbp), %rax
	movl	%edx, %r8d
	leaq	.LC28(%rip), %rdx
	movq	%rax, %rcx
.LEHB22:
	call	_ZNSt14basic_ofstreamIcSt11char_traitsIcEE4openEPKcSt13_Ios_Openmode
	leaq	432(%rbp), %rax
	addq	$200, %rax
	movq	%rax, %rcx
	call	_ZNKSt9basic_iosIcSt11char_traitsIcEE4goodEv
	xorl	$1, %eax
	testb	%al, %al
	je	.L99
	leaq	.LC29(%rip), %rdx
	movq	.refptr._ZSt4cout(%rip), %rcx
	call	_ZStlsISt11char_traitsIcEERSt13basic_ostreamIcT_ES5_PKc
	movl	$1, %ecx
	call	exit
.L99:
	leaq	-32(%rbp), %rax
	movq	%rax, %rcx
	call	_ZNSt14basic_ofstreamIcSt11char_traitsIcEEC1Ev
.LEHE22:
	movl	$32, %edx
	movl	$16, %ecx
	call	_ZStorSt13_Ios_OpenmodeS_
	movl	%eax, %edx
	leaq	-32(%rbp), %rax
	movl	%edx, %r8d
	leaq	.LC30(%rip), %rdx
	movq	%rax, %rcx
.LEHB23:
	call	_ZNSt14basic_ofstreamIcSt11char_traitsIcEE4openEPKcSt13_Ios_Openmode
	leaq	-32(%rbp), %rax
	addq	$200, %rax
	movq	%rax, %rcx
	call	_ZNKSt9basic_iosIcSt11char_traitsIcEE4goodEv
	xorl	$1, %eax
	testb	%al, %al
	je	.L100
	leaq	.LC31(%rip), %rdx
	movq	.refptr._ZSt4cout(%rip), %rcx
	call	_ZStlsISt11char_traitsIcEERSt13basic_ostreamIcT_ES5_PKc
.LEHE23:
	movl	$1, %ecx
	call	exit
.L100:
	movl	$0, 2828(%rbp)
	leaq	-64(%rbp), %rax
	movq	%rax, %rcx
	call	_ZNSt7__cxx1112basic_stringIcSt11char_traitsIcESaIcEEC1Ev
.L112:
	leaq	-64(%rbp), %rdx
	leaq	2304(%rbp), %rax
	movq	%rax, %rcx
.LEHB24:
	call	_ZStrsIcSt11char_traitsIcESaIcEERSt13basic_istreamIT_T0_ES7_RNSt7__cxx1112basic_stringIS4_S5_T1_EE
	movq	%rax, %rcx
	leaq	-68(%rbp), %rax
	movq	%rax, %rdx
	call	_ZNSirsERi
	movq	(%rax), %rdx
	subq	$24, %rdx
	movq	(%rdx), %rdx
	addq	%rdx, %rax
	movq	%rax, %rcx
	call	_ZNKSt9basic_iosIcSt11char_traitsIcEEcvbEv
	testb	%al, %al
	je	.L101
	cmpl	$0, 2828(%rbp)
	jne	.L102
	movl	-68(%rbp), %eax
	movl	%eax, 2828(%rbp)
.L102:
	movl	-68(%rbp), %eax
	cmpl	2828(%rbp), %eax
	jne	.L103
	leaq	-64(%rbp), %rax
	movq	%rax, %rcx
	call	_Z13binary_searchRNSt7__cxx1112basic_stringIcSt11char_traitsIcESaIcEEE
	movl	%eax, 2808(%rbp)
	cmpl	$-1, 2808(%rbp)
	je	.L112
	movl	2808(%rbp), %eax
	cltq
	leaq	0(,%rax,8), %rdx
	leaq	words_weight(%rip), %rax
	movsd	(%rdx,%rax), %xmm0
	movsd	%xmm0, 2800(%rbp)
	leaq	1824(%rbp), %rax
	addq	$208, %rax
	movl	$0, %edx
	movq	%rax, %rcx
	call	_ZNSt9basic_iosIcSt11char_traitsIcEE5clearESt12_Ios_Iostate
	movl	2808(%rbp), %eax
	leal	0(,%rax,8), %edx
	movl	keywords_num(%rip), %eax
	imull	%edx, %eax
	movslq	%eax, %rdx
	leaq	1824(%rbp), %rax
	movl	$0, %r8d
	movq	%rax, %rcx
	call	_ZNSi5seekgExSt12_Ios_Seekdir
	movsd	.LC9(%rip), %xmm0
	movsd	%xmm0, -80(%rbp)
	movl	$0, 2824(%rbp)
	leaq	-64(%rbp), %rdx
	leaq	-32(%rbp), %rax
	movq	%rax, %rcx
	call	_ZStlsIcSt11char_traitsIcESaIcEERSt13basic_ostreamIT_T0_ES7_RKNSt7__cxx1112basic_stringIS4_S5_T1_EE
.L106:
	movl	2824(%rbp), %eax
	leal	1(%rax), %edx
	movl	%edx, 2824(%rbp)
	movl	keywords_num(%rip), %edx
	cmpl	%edx, %eax
	setl	%al
	testb	%al, %al
	je	.L105
	leaq	-80(%rbp), %rdx
	leaq	1824(%rbp), %rax
	movl	$8, %r8d
	movq	%rax, %rcx
	call	_ZNSi4readEPcx
	movsd	-80(%rbp), %xmm6
	leaq	-32(%rbp), %rax
	leaq	.LC16(%rip), %rdx
	movq	%rax, %rcx
	call	_ZStlsISt11char_traitsIcEERSt13basic_ostreamIcT_ES5_PKc
	movapd	%xmm6, %xmm1
	movq	%rax, %rcx
	call	_ZNSolsEd
	movl	2824(%rbp), %eax
	leal	-1(%rax), %edx
	movl	2824(%rbp), %eax
	leal	-1(%rax), %ecx
	movslq	%edx, %rax
	salq	$4, %rax
	movq	%rax, %rdx
	leaq	keywords_rate(%rip), %rax
	movl	%ecx, (%rdx,%rax)
	movl	2824(%rbp), %eax
	leal	-1(%rax), %ecx
	movl	2824(%rbp), %eax
	subl	$1, %eax
	cltq
	salq	$4, %rax
	movq	%rax, %rdx
	leaq	8+keywords_rate(%rip), %rax
	movsd	(%rdx,%rax), %xmm1
	movsd	-80(%rbp), %xmm0
	mulsd	2800(%rbp), %xmm0
	addsd	%xmm1, %xmm0
	movslq	%ecx, %rax
	salq	$4, %rax
	movq	%rax, %rdx
	leaq	8+keywords_rate(%rip), %rax
	movsd	%xmm0, (%rdx,%rax)
	jmp	.L106
.L105:
	leaq	-32(%rbp), %rax
	movq	.refptr._ZSt4endlIcSt11char_traitsIcEERSt13basic_ostreamIT_T0_ES6_(%rip), %rdx
	movq	%rax, %rcx
	call	_ZNSolsEPFRSoS_E
	jmp	.L112
.L103:
	movl	keywords_num(%rip), %eax
	cltq
	salq	$4, %rax
	movq	%rax, %rdx
	leaq	keywords_rate(%rip), %rax
	addq	%rdx, %rax
	movq	%rax, %rdx
	leaq	keywords_rate(%rip), %rcx
	call	_ZSt4sortIP13Keywords_rateEvT_S2_
	movl	$0, 2820(%rbp)
.L109:
	movl	keywords_num(%rip), %eax
	cmpl	%eax, 2820(%rbp)
	jge	.L108
	movl	2820(%rbp), %eax
	cltq
	salq	$4, %rax
	movq	%rax, %rdx
	leaq	8+keywords_rate(%rip), %rax
	movsd	(%rdx,%rax), %xmm6
	movl	2820(%rbp), %eax
	cltq
	salq	$4, %rax
	movq	%rax, %rdx
	leaq	keywords_rate(%rip), %rax
	movl	(%rdx,%rax), %ebx
	movl	2820(%rbp), %eax
	cltq
	salq	$4, %rax
	movq	%rax, %rdx
	leaq	keywords_rate(%rip), %rax
	movl	(%rdx,%rax), %eax
	cltq
	salq	$5, %rax
	movq	%rax, %rdx
	leaq	_Z8keywordsB5cxx11(%rip), %rax
	addq	%rax, %rdx
	leaq	432(%rbp), %rax
	movq	%rax, %rcx
	call	_ZStlsIcSt11char_traitsIcESaIcEERSt13basic_ostreamIT_T0_ES7_RKNSt7__cxx1112basic_stringIS4_S5_T1_EE
	leaq	.LC16(%rip), %rdx
	movq	%rax, %rcx
	call	_ZStlsISt11char_traitsIcEERSt13basic_ostreamIcT_ES5_PKc
	movl	%ebx, %edx
	movq	%rax, %rcx
	call	_ZNSolsEi
	leaq	.LC16(%rip), %rdx
	movq	%rax, %rcx
	call	_ZStlsISt11char_traitsIcEERSt13basic_ostreamIcT_ES5_PKc
	movapd	%xmm6, %xmm1
	movq	%rax, %rcx
	call	_ZNSolsEd
	movq	.refptr._ZSt4endlIcSt11char_traitsIcEERSt13basic_ostreamIT_T0_ES6_(%rip), %rdx
	movq	%rax, %rcx
	call	_ZNSolsEPFRSoS_E
	addl	$1, 2820(%rbp)
	jmp	.L109
.L108:
	movl	keywords_num(%rip), %eax
	subl	$3, %eax
	cltq
	salq	$4, %rax
	movq	%rax, %rdx
	leaq	keywords_rate(%rip), %rax
	movl	(%rdx,%rax), %eax
	cltq
	salq	$5, %rax
	movq	%rax, %rdx
	leaq	_Z8keywordsB5cxx11(%rip), %rax
	leaq	(%rdx,%rax), %rbx
	movl	keywords_num(%rip), %eax
	subl	$2, %eax
	cltq
	salq	$4, %rax
	movq	%rax, %rdx
	leaq	keywords_rate(%rip), %rax
	movl	(%rdx,%rax), %eax
	cltq
	salq	$5, %rax
	movq	%rax, %rdx
	leaq	_Z8keywordsB5cxx11(%rip), %rax
	leaq	(%rdx,%rax), %rsi
	movl	keywords_num(%rip), %eax
	subl	$1, %eax
	cltq
	salq	$4, %rax
	movq	%rax, %rdx
	leaq	keywords_rate(%rip), %rax
	movl	(%rdx,%rax), %eax
	cltq
	salq	$5, %rax
	movq	%rax, %rdx
	leaq	_Z8keywordsB5cxx11(%rip), %rax
	leaq	(%rdx,%rax), %rdi
	movl	2828(%rbp), %edx
	leaq	1360(%rbp), %rax
	movq	%rax, %rcx
	call	_ZNSolsEi
	leaq	.LC32(%rip), %rdx
	movq	%rax, %rcx
	call	_ZStlsISt11char_traitsIcEERSt13basic_ostreamIcT_ES5_PKc
	movq	%rdi, %rdx
	movq	%rax, %rcx
	call	_ZStlsIcSt11char_traitsIcESaIcEERSt13basic_ostreamIT_T0_ES7_RKNSt7__cxx1112basic_stringIS4_S5_T1_EE
	movl	$44, %edx
	movq	%rax, %rcx
	call	_ZStlsISt11char_traitsIcEERSt13basic_ostreamIcT_ES5_c
	movq	%rsi, %rdx
	movq	%rax, %rcx
	call	_ZStlsIcSt11char_traitsIcESaIcEERSt13basic_ostreamIT_T0_ES7_RKNSt7__cxx1112basic_stringIS4_S5_T1_EE
	movl	$44, %edx
	movq	%rax, %rcx
	call	_ZStlsISt11char_traitsIcEERSt13basic_ostreamIcT_ES5_c
	movq	%rbx, %rdx
	movq	%rax, %rcx
	call	_ZStlsIcSt11char_traitsIcESaIcEERSt13basic_ostreamIT_T0_ES7_RKNSt7__cxx1112basic_stringIS4_S5_T1_EE
	movl	$44, %edx
	movq	%rax, %rcx
	call	_ZStlsISt11char_traitsIcEERSt13basic_ostreamIcT_ES5_c
	movq	.refptr._ZSt4endlIcSt11char_traitsIcEERSt13basic_ostreamIT_T0_ES6_(%rip), %rdx
	movq	%rax, %rcx
	call	_ZNSolsEPFRSoS_E
	movl	-68(%rbp), %eax
	movl	%eax, 2828(%rbp)
	movl	$5760, %r8d
	movl	$0, %edx
	leaq	keywords_rate(%rip), %rcx
	call	memset
	leaq	-64(%rbp), %rax
	movq	%rax, %rcx
	call	_Z13binary_searchRNSt7__cxx1112basic_stringIcSt11char_traitsIcESaIcEEE
	movl	%eax, 2796(%rbp)
	cmpl	$-1, 2796(%rbp)
	je	.L112
	movl	2796(%rbp), %eax
	cltq
	leaq	0(,%rax,8), %rdx
	leaq	words_weight(%rip), %rax
	movsd	(%rdx,%rax), %xmm0
	movsd	%xmm0, 2784(%rbp)
	leaq	1824(%rbp), %rax
	addq	$208, %rax
	movl	$0, %edx
	movq	%rax, %rcx
	call	_ZNSt9basic_iosIcSt11char_traitsIcEE5clearESt12_Ios_Iostate
	movl	2796(%rbp), %eax
	leal	0(,%rax,8), %edx
	movl	keywords_num(%rip), %eax
	imull	%edx, %eax
	movslq	%eax, %rdx
	leaq	1824(%rbp), %rax
	movl	$0, %r8d
	movq	%rax, %rcx
	call	_ZNSi5seekgExSt12_Ios_Seekdir
	movsd	.LC9(%rip), %xmm0
	movsd	%xmm0, -88(%rbp)
	movl	$0, 2816(%rbp)
	leaq	-64(%rbp), %rdx
	leaq	-32(%rbp), %rax
	movq	%rax, %rcx
	call	_ZStlsIcSt11char_traitsIcESaIcEERSt13basic_ostreamIT_T0_ES7_RKNSt7__cxx1112basic_stringIS4_S5_T1_EE
.L111:
	movl	2816(%rbp), %eax
	leal	1(%rax), %edx
	movl	%edx, 2816(%rbp)
	movl	keywords_num(%rip), %edx
	cmpl	%edx, %eax
	setl	%al
	testb	%al, %al
	je	.L110
	leaq	-88(%rbp), %rdx
	leaq	1824(%rbp), %rax
	movl	$8, %r8d
	movq	%rax, %rcx
	call	_ZNSi4readEPcx
	movsd	-88(%rbp), %xmm6
	leaq	-32(%rbp), %rax
	leaq	.LC16(%rip), %rdx
	movq	%rax, %rcx
	call	_ZStlsISt11char_traitsIcEERSt13basic_ostreamIcT_ES5_PKc
	movapd	%xmm6, %xmm1
	movq	%rax, %rcx
	call	_ZNSolsEd
	movl	2816(%rbp), %eax
	leal	-1(%rax), %edx
	movl	2816(%rbp), %eax
	leal	-1(%rax), %ecx
	movslq	%edx, %rax
	salq	$4, %rax
	movq	%rax, %rdx
	leaq	keywords_rate(%rip), %rax
	movl	%ecx, (%rdx,%rax)
	movl	2816(%rbp), %eax
	leal	-1(%rax), %ecx
	movl	2816(%rbp), %eax
	subl	$1, %eax
	cltq
	salq	$4, %rax
	movq	%rax, %rdx
	leaq	8+keywords_rate(%rip), %rax
	movsd	(%rdx,%rax), %xmm1
	movsd	-88(%rbp), %xmm0
	mulsd	2784(%rbp), %xmm0
	addsd	%xmm1, %xmm0
	movslq	%ecx, %rax
	salq	$4, %rax
	movq	%rax, %rdx
	leaq	8+keywords_rate(%rip), %rax
	movsd	%xmm0, (%rdx,%rax)
	jmp	.L111
.L110:
	leaq	-32(%rbp), %rax
	movq	.refptr._ZSt4endlIcSt11char_traitsIcEERSt13basic_ostreamIT_T0_ES6_(%rip), %rdx
	movq	%rax, %rcx
	call	_ZNSolsEPFRSoS_E
	jmp	.L112
.L101:
	movl	keywords_num(%rip), %eax
	cltq
	salq	$4, %rax
	movq	%rax, %rdx
	leaq	keywords_rate(%rip), %rax
	addq	%rdx, %rax
	movq	%rax, %rdx
	leaq	keywords_rate(%rip), %rcx
	call	_ZSt4sortIP13Keywords_rateEvT_S2_
	movl	$0, 2812(%rbp)
.L114:
	movl	keywords_num(%rip), %eax
	cmpl	%eax, 2812(%rbp)
	jge	.L113
	movl	2812(%rbp), %eax
	cltq
	salq	$4, %rax
	movq	%rax, %rdx
	leaq	8+keywords_rate(%rip), %rax
	movsd	(%rdx,%rax), %xmm6
	movl	2812(%rbp), %eax
	cltq
	salq	$4, %rax
	movq	%rax, %rdx
	leaq	keywords_rate(%rip), %rax
	movl	(%rdx,%rax), %ebx
	movl	2812(%rbp), %eax
	cltq
	salq	$4, %rax
	movq	%rax, %rdx
	leaq	keywords_rate(%rip), %rax
	movl	(%rdx,%rax), %eax
	cltq
	salq	$5, %rax
	movq	%rax, %rdx
	leaq	_Z8keywordsB5cxx11(%rip), %rax
	addq	%rax, %rdx
	leaq	432(%rbp), %rax
	movq	%rax, %rcx
	call	_ZStlsIcSt11char_traitsIcESaIcEERSt13basic_ostreamIT_T0_ES7_RKNSt7__cxx1112basic_stringIS4_S5_T1_EE
	leaq	.LC16(%rip), %rdx
	movq	%rax, %rcx
	call	_ZStlsISt11char_traitsIcEERSt13basic_ostreamIcT_ES5_PKc
	movl	%ebx, %edx
	movq	%rax, %rcx
	call	_ZNSolsEi
	leaq	.LC16(%rip), %rdx
	movq	%rax, %rcx
	call	_ZStlsISt11char_traitsIcEERSt13basic_ostreamIcT_ES5_PKc
	movapd	%xmm6, %xmm1
	movq	%rax, %rcx
	call	_ZNSolsEd
	movq	.refptr._ZSt4endlIcSt11char_traitsIcEERSt13basic_ostreamIT_T0_ES6_(%rip), %rdx
	movq	%rax, %rcx
	call	_ZNSolsEPFRSoS_E
	addl	$1, 2812(%rbp)
	jmp	.L114
.L113:
	movl	keywords_num(%rip), %eax
	subl	$3, %eax
	cltq
	salq	$4, %rax
	movq	%rax, %rdx
	leaq	keywords_rate(%rip), %rax
	movl	(%rdx,%rax), %eax
	cltq
	salq	$5, %rax
	movq	%rax, %rdx
	leaq	_Z8keywordsB5cxx11(%rip), %rax
	leaq	(%rdx,%rax), %rbx
	movl	keywords_num(%rip), %eax
	subl	$2, %eax
	cltq
	salq	$4, %rax
	movq	%rax, %rdx
	leaq	keywords_rate(%rip), %rax
	movl	(%rdx,%rax), %eax
	cltq
	salq	$5, %rax
	movq	%rax, %rdx
	leaq	_Z8keywordsB5cxx11(%rip), %rax
	leaq	(%rdx,%rax), %rsi
	movl	keywords_num(%rip), %eax
	subl	$1, %eax
	cltq
	salq	$4, %rax
	movq	%rax, %rdx
	leaq	keywords_rate(%rip), %rax
	movl	(%rdx,%rax), %eax
	cltq
	salq	$5, %rax
	movq	%rax, %rdx
	leaq	_Z8keywordsB5cxx11(%rip), %rax
	leaq	(%rdx,%rax), %rdi
	movl	2828(%rbp), %edx
	leaq	1360(%rbp), %rax
	movq	%rax, %rcx
	call	_ZNSolsEi
	leaq	.LC32(%rip), %rdx
	movq	%rax, %rcx
	call	_ZStlsISt11char_traitsIcEERSt13basic_ostreamIcT_ES5_PKc
	movq	%rdi, %rdx
	movq	%rax, %rcx
	call	_ZStlsIcSt11char_traitsIcESaIcEERSt13basic_ostreamIT_T0_ES7_RKNSt7__cxx1112basic_stringIS4_S5_T1_EE
	movl	$44, %edx
	movq	%rax, %rcx
	call	_ZStlsISt11char_traitsIcEERSt13basic_ostreamIcT_ES5_c
	movq	%rsi, %rdx
	movq	%rax, %rcx
	call	_ZStlsIcSt11char_traitsIcESaIcEERSt13basic_ostreamIT_T0_ES7_RKNSt7__cxx1112basic_stringIS4_S5_T1_EE
	movl	$44, %edx
	movq	%rax, %rcx
	call	_ZStlsISt11char_traitsIcEERSt13basic_ostreamIcT_ES5_c
	movq	%rbx, %rdx
	movq	%rax, %rcx
	call	_ZStlsIcSt11char_traitsIcESaIcEERSt13basic_ostreamIT_T0_ES7_RKNSt7__cxx1112basic_stringIS4_S5_T1_EE
	movl	$44, %edx
	movq	%rax, %rcx
	call	_ZStlsISt11char_traitsIcEERSt13basic_ostreamIcT_ES5_c
	movq	.refptr._ZSt4endlIcSt11char_traitsIcEERSt13basic_ostreamIT_T0_ES6_(%rip), %rdx
	movq	%rax, %rcx
	call	_ZNSolsEPFRSoS_E
	leaq	2304(%rbp), %rax
	movq	%rax, %rcx
	call	_ZNSt14basic_ifstreamIcSt11char_traitsIcEE5closeEv
	leaq	1360(%rbp), %rax
	movq	%rax, %rcx
	call	_ZNSt14basic_ofstreamIcSt11char_traitsIcEE5closeEv
	leaq	1824(%rbp), %rax
	movq	%rax, %rcx
	call	_ZNSt14basic_ifstreamIcSt11char_traitsIcEE5closeEv
	leaq	896(%rbp), %rax
	movq	%rax, %rcx
	call	_ZNSt14basic_ofstreamIcSt11char_traitsIcEE5closeEv
	leaq	432(%rbp), %rax
	movq	%rax, %rcx
	call	_ZNSt14basic_ofstreamIcSt11char_traitsIcEE5closeEv
	leaq	-32(%rbp), %rax
	movq	%rax, %rcx
	call	_ZNSt14basic_ofstreamIcSt11char_traitsIcEE5closeEv
.LEHE24:
	leaq	-64(%rbp), %rax
	movq	%rax, %rcx
	call	_ZNSt7__cxx1112basic_stringIcSt11char_traitsIcESaIcEED1Ev
	leaq	-32(%rbp), %rax
	movq	%rax, %rcx
	call	_ZNSt14basic_ofstreamIcSt11char_traitsIcEED1Ev
	leaq	432(%rbp), %rax
	movq	%rax, %rcx
	call	_ZNSt14basic_ofstreamIcSt11char_traitsIcEED1Ev
	leaq	896(%rbp), %rax
	movq	%rax, %rcx
	call	_ZNSt14basic_ofstreamIcSt11char_traitsIcEED1Ev
	leaq	1360(%rbp), %rax
	movq	%rax, %rcx
	call	_ZNSt14basic_ofstreamIcSt11char_traitsIcEED1Ev
	leaq	1824(%rbp), %rax
	movq	%rax, %rcx
	call	_ZNSt14basic_ifstreamIcSt11char_traitsIcEED1Ev
	leaq	2304(%rbp), %rax
	movq	%rax, %rcx
	call	_ZNSt14basic_ifstreamIcSt11char_traitsIcEED1Ev
	jmp	.L129
.L128:
	movq	%rax, %rbx
	leaq	-64(%rbp), %rax
	movq	%rax, %rcx
	call	_ZNSt7__cxx1112basic_stringIcSt11char_traitsIcESaIcEED1Ev
	jmp	.L116
.L127:
	movq	%rax, %rbx
.L116:
	leaq	-32(%rbp), %rax
	movq	%rax, %rcx
	call	_ZNSt14basic_ofstreamIcSt11char_traitsIcEED1Ev
	jmp	.L117
.L126:
	movq	%rax, %rbx
.L117:
	leaq	432(%rbp), %rax
	movq	%rax, %rcx
	call	_ZNSt14basic_ofstreamIcSt11char_traitsIcEED1Ev
	jmp	.L118
.L125:
	movq	%rax, %rbx
.L118:
	leaq	896(%rbp), %rax
	movq	%rax, %rcx
	call	_ZNSt14basic_ofstreamIcSt11char_traitsIcEED1Ev
	jmp	.L119
.L124:
	movq	%rax, %rbx
.L119:
	leaq	1360(%rbp), %rax
	movq	%rax, %rcx
	call	_ZNSt14basic_ofstreamIcSt11char_traitsIcEED1Ev
	jmp	.L120
.L123:
	movq	%rax, %rbx
.L120:
	leaq	1824(%rbp), %rax
	movq	%rax, %rcx
	call	_ZNSt14basic_ifstreamIcSt11char_traitsIcEED1Ev
	jmp	.L121
.L122:
	movq	%rax, %rbx
.L121:
	leaq	2304(%rbp), %rax
	movq	%rax, %rcx
	call	_ZNSt14basic_ifstreamIcSt11char_traitsIcEED1Ev
	movq	%rbx, %rax
	movq	%rax, %rcx
.LEHB25:
	call	_Unwind_Resume
	nop
.LEHE25:
.L129:
	movaps	2832(%rbp), %xmm6
	addq	$2984, %rsp
	popq	%rbx
	popq	%rsi
	popq	%rdi
	popq	%rbp
	ret
	.seh_handler	__gxx_personality_seh0, @unwind, @except
	.seh_handlerdata
.LLSDA2405:
	.byte	0xff
	.byte	0xff
	.byte	0x1
	.uleb128 .LLSDACSE2405-.LLSDACSB2405
.LLSDACSB2405:
	.uleb128 .LEHB17-.LFB2405
	.uleb128 .LEHE17-.LEHB17
	.uleb128 0
	.uleb128 0
	.uleb128 .LEHB18-.LFB2405
	.uleb128 .LEHE18-.LEHB18
	.uleb128 .L122-.LFB2405
	.uleb128 0
	.uleb128 .LEHB19-.LFB2405
	.uleb128 .LEHE19-.LEHB19
	.uleb128 .L123-.LFB2405
	.uleb128 0
	.uleb128 .LEHB20-.LFB2405
	.uleb128 .LEHE20-.LEHB20
	.uleb128 .L124-.LFB2405
	.uleb128 0
	.uleb128 .LEHB21-.LFB2405
	.uleb128 .LEHE21-.LEHB21
	.uleb128 .L125-.LFB2405
	.uleb128 0
	.uleb128 .LEHB22-.LFB2405
	.uleb128 .LEHE22-.LEHB22
	.uleb128 .L126-.LFB2405
	.uleb128 0
	.uleb128 .LEHB23-.LFB2405
	.uleb128 .LEHE23-.LEHB23
	.uleb128 .L127-.LFB2405
	.uleb128 0
	.uleb128 .LEHB24-.LFB2405
	.uleb128 .LEHE24-.LEHB24
	.uleb128 .L128-.LFB2405
	.uleb128 0
	.uleb128 .LEHB25-.LFB2405
	.uleb128 .LEHE25-.LEHB25
	.uleb128 0
	.uleb128 0
.LLSDACSE2405:
	.text
	.seh_endproc
	.def	__main;	.scl	2;	.type	32;	.endef
	.globl	main
	.def	main;	.scl	2;	.type	32;	.endef
	.seh_proc	main
main:
.LFB2406:
	pushq	%rbp
	.seh_pushreg	%rbp
	movq	%rsp, %rbp
	.seh_setframe	%rbp, 0
	subq	$32, %rsp
	.seh_stackalloc	32
	.seh_endprologue
	call	__main
	call	_Z9get_wordsv
	call	_Z12get_keywordsv
	call	_Z13extract_wordsv
	call	_Z21discard_invalid_wordsv
	call	_Z16compute_keywordsv
	movl	$0, %eax
	addq	$32, %rsp
	popq	%rbp
	ret
	.seh_endproc
	.section	.text$_ZNSt3setINSt7__cxx1112basic_stringIcSt11char_traitsIcESaIcEEESt4lessIS5_ESaIS5_EEC1Ev,"x"
	.linkonce discard
	.align 2
	.globl	_ZNSt3setINSt7__cxx1112basic_stringIcSt11char_traitsIcESaIcEEESt4lessIS5_ESaIS5_EEC1Ev
	.def	_ZNSt3setINSt7__cxx1112basic_stringIcSt11char_traitsIcESaIcEEESt4lessIS5_ESaIS5_EEC1Ev;	.scl	2;	.type	32;	.endef
	.seh_proc	_ZNSt3setINSt7__cxx1112basic_stringIcSt11char_traitsIcESaIcEEESt4lessIS5_ESaIS5_EEC1Ev
_ZNSt3setINSt7__cxx1112basic_stringIcSt11char_traitsIcESaIcEEESt4lessIS5_ESaIS5_EEC1Ev:
.LFB2641:
	pushq	%rbp
	.seh_pushreg	%rbp
	movq	%rsp, %rbp
	.seh_setframe	%rbp, 0
	subq	$32, %rsp
	.seh_stackalloc	32
	.seh_endprologue
	movq	%rcx, 16(%rbp)
	movq	16(%rbp), %rax
	movq	%rax, %rcx
	call	_ZNSt8_Rb_treeINSt7__cxx1112basic_stringIcSt11char_traitsIcESaIcEEES5_St9_IdentityIS5_ESt4lessIS5_ESaIS5_EEC1Ev
	nop
	addq	$32, %rsp
	popq	%rbp
	ret
	.seh_handler	__gxx_personality_seh0, @unwind, @except
	.seh_handlerdata
.LLSDA2641:
	.byte	0xff
	.byte	0xff
	.byte	0x1
	.uleb128 .LLSDACSE2641-.LLSDACSB2641
.LLSDACSB2641:
.LLSDACSE2641:
	.section	.text$_ZNSt3setINSt7__cxx1112basic_stringIcSt11char_traitsIcESaIcEEESt4lessIS5_ESaIS5_EEC1Ev,"x"
	.linkonce discard
	.seh_endproc
	.section	.text$_ZSteqIcEN9__gnu_cxx11__enable_ifIXsrSt9__is_charIT_E7__valueEbE6__typeERKNSt7__cxx1112basic_stringIS3_St11char_traitsIS3_ESaIS3_EEESE_,"x"
	.linkonce discard
	.globl	_ZSteqIcEN9__gnu_cxx11__enable_ifIXsrSt9__is_charIT_E7__valueEbE6__typeERKNSt7__cxx1112basic_stringIS3_St11char_traitsIS3_ESaIS3_EEESE_
	.def	_ZSteqIcEN9__gnu_cxx11__enable_ifIXsrSt9__is_charIT_E7__valueEbE6__typeERKNSt7__cxx1112basic_stringIS3_St11char_traitsIS3_ESaIS3_EEESE_;	.scl	2;	.type	32;	.endef
	.seh_proc	_ZSteqIcEN9__gnu_cxx11__enable_ifIXsrSt9__is_charIT_E7__valueEbE6__typeERKNSt7__cxx1112basic_stringIS3_St11char_traitsIS3_ESaIS3_EEESE_
_ZSteqIcEN9__gnu_cxx11__enable_ifIXsrSt9__is_charIT_E7__valueEbE6__typeERKNSt7__cxx1112basic_stringIS3_St11char_traitsIS3_ESaIS3_EEESE_:
.LFB2657:
	pushq	%rbp
	.seh_pushreg	%rbp
	pushq	%rsi
	.seh_pushreg	%rsi
	pushq	%rbx
	.seh_pushreg	%rbx
	movq	%rsp, %rbp
	.seh_setframe	%rbp, 0
	subq	$32, %rsp
	.seh_stackalloc	32
	.seh_endprologue
	movq	%rcx, 32(%rbp)
	movq	%rdx, 40(%rbp)
	movq	32(%rbp), %rcx
	call	_ZNKSt7__cxx1112basic_stringIcSt11char_traitsIcESaIcEE4sizeEv
	movq	%rax, %rbx
	movq	40(%rbp), %rax
	movq	%rax, %rcx
	call	_ZNKSt7__cxx1112basic_stringIcSt11char_traitsIcESaIcEE4sizeEv
	cmpq	%rax, %rbx
	jne	.L134
	movq	32(%rbp), %rcx
	call	_ZNKSt7__cxx1112basic_stringIcSt11char_traitsIcESaIcEE4sizeEv
	movq	%rax, %rsi
	movq	40(%rbp), %rax
	movq	%rax, %rcx
	call	_ZNKSt7__cxx1112basic_stringIcSt11char_traitsIcESaIcEE4dataEv
	movq	%rax, %rbx
	movq	32(%rbp), %rcx
	call	_ZNKSt7__cxx1112basic_stringIcSt11char_traitsIcESaIcEE4dataEv
	movq	%rsi, %r8
	movq	%rbx, %rdx
	movq	%rax, %rcx
	call	_ZNSt11char_traitsIcE7compareEPKcS2_y
	testl	%eax, %eax
	jne	.L134
	movl	$1, %eax
	jmp	.L135
.L134:
	movl	$0, %eax
.L135:
	addq	$32, %rsp
	popq	%rbx
	popq	%rsi
	popq	%rbp
	ret
	.seh_endproc
	.section	.text$_ZStltIcSt11char_traitsIcESaIcEEbRKNSt7__cxx1112basic_stringIT_T0_T1_EESA_,"x"
	.linkonce discard
	.globl	_ZStltIcSt11char_traitsIcESaIcEEbRKNSt7__cxx1112basic_stringIT_T0_T1_EESA_
	.def	_ZStltIcSt11char_traitsIcESaIcEEbRKNSt7__cxx1112basic_stringIT_T0_T1_EESA_;	.scl	2;	.type	32;	.endef
	.seh_proc	_ZStltIcSt11char_traitsIcESaIcEEbRKNSt7__cxx1112basic_stringIT_T0_T1_EESA_
_ZStltIcSt11char_traitsIcESaIcEEbRKNSt7__cxx1112basic_stringIT_T0_T1_EESA_:
.LFB2658:
	pushq	%rbp
	.seh_pushreg	%rbp
	movq	%rsp, %rbp
	.seh_setframe	%rbp, 0
	subq	$32, %rsp
	.seh_stackalloc	32
	.seh_endprologue
	movq	%rcx, 16(%rbp)
	movq	%rdx, 24(%rbp)
	movq	24(%rbp), %rax
	movq	%rax, %rdx
	movq	16(%rbp), %rcx
	call	_ZNKSt7__cxx1112basic_stringIcSt11char_traitsIcESaIcEE7compareERKS4_
	shrl	$31, %eax
	addq	$32, %rsp
	popq	%rbp
	ret
	.seh_handler	__gxx_personality_seh0, @unwind, @except
	.seh_handlerdata
.LLSDA2658:
	.byte	0xff
	.byte	0xff
	.byte	0x1
	.uleb128 .LLSDACSE2658-.LLSDACSB2658
.LLSDACSB2658:
.LLSDACSE2658:
	.section	.text$_ZStltIcSt11char_traitsIcESaIcEEbRKNSt7__cxx1112basic_stringIT_T0_T1_EESA_,"x"
	.linkonce discard
	.seh_endproc
	.section	.text$_ZSt7forwardIRSt17_Rb_tree_iteratorINSt7__cxx1112basic_stringIcSt11char_traitsIcESaIcEEEEEOT_RNSt16remove_referenceIS9_E4typeE,"x"
	.linkonce discard
	.globl	_ZSt7forwardIRSt17_Rb_tree_iteratorINSt7__cxx1112basic_stringIcSt11char_traitsIcESaIcEEEEEOT_RNSt16remove_referenceIS9_E4typeE
	.def	_ZSt7forwardIRSt17_Rb_tree_iteratorINSt7__cxx1112basic_stringIcSt11char_traitsIcESaIcEEEEEOT_RNSt16remove_referenceIS9_E4typeE;	.scl	2;	.type	32;	.endef
	.seh_proc	_ZSt7forwardIRSt17_Rb_tree_iteratorINSt7__cxx1112basic_stringIcSt11char_traitsIcESaIcEEEEEOT_RNSt16remove_referenceIS9_E4typeE
_ZSt7forwardIRSt17_Rb_tree_iteratorINSt7__cxx1112basic_stringIcSt11char_traitsIcESaIcEEEEEOT_RNSt16remove_referenceIS9_E4typeE:
.LFB2688:
	pushq	%rbp
	.seh_pushreg	%rbp
	movq	%rsp, %rbp
	.seh_setframe	%rbp, 0
	.seh_endprologue
	movq	%rcx, 16(%rbp)
	movq	16(%rbp), %rax
	popq	%rbp
	ret
	.seh_endproc
	.section	.text$_ZSt7forwardIRbEOT_RNSt16remove_referenceIS1_E4typeE,"x"
	.linkonce discard
	.globl	_ZSt7forwardIRbEOT_RNSt16remove_referenceIS1_E4typeE
	.def	_ZSt7forwardIRbEOT_RNSt16remove_referenceIS1_E4typeE;	.scl	2;	.type	32;	.endef
	.seh_proc	_ZSt7forwardIRbEOT_RNSt16remove_referenceIS1_E4typeE
_ZSt7forwardIRbEOT_RNSt16remove_referenceIS1_E4typeE:
.LFB2689:
	pushq	%rbp
	.seh_pushreg	%rbp
	movq	%rsp, %rbp
	.seh_setframe	%rbp, 0
	.seh_endprologue
	movq	%rcx, 16(%rbp)
	movq	16(%rbp), %rax
	popq	%rbp
	ret
	.seh_endproc
	.section	.text$_ZNSt4pairISt23_Rb_tree_const_iteratorINSt7__cxx1112basic_stringIcSt11char_traitsIcESaIcEEEEbEC1IRSt17_Rb_tree_iteratorIS6_ERbLb1EEEOT_OT0_,"x"
	.linkonce discard
	.align 2
	.globl	_ZNSt4pairISt23_Rb_tree_const_iteratorINSt7__cxx1112basic_stringIcSt11char_traitsIcESaIcEEEEbEC1IRSt17_Rb_tree_iteratorIS6_ERbLb1EEEOT_OT0_
	.def	_ZNSt4pairISt23_Rb_tree_const_iteratorINSt7__cxx1112basic_stringIcSt11char_traitsIcESaIcEEEEbEC1IRSt17_Rb_tree_iteratorIS6_ERbLb1EEEOT_OT0_;	.scl	2;	.type	32;	.endef
	.seh_proc	_ZNSt4pairISt23_Rb_tree_const_iteratorINSt7__cxx1112basic_stringIcSt11char_traitsIcESaIcEEEEbEC1IRSt17_Rb_tree_iteratorIS6_ERbLb1EEEOT_OT0_
_ZNSt4pairISt23_Rb_tree_const_iteratorINSt7__cxx1112basic_stringIcSt11char_traitsIcESaIcEEEEbEC1IRSt17_Rb_tree_iteratorIS6_ERbLb1EEEOT_OT0_:
.LFB2691:
	pushq	%rbp
	.seh_pushreg	%rbp
	movq	%rsp, %rbp
	.seh_setframe	%rbp, 0
	subq	$32, %rsp
	.seh_stackalloc	32
	.seh_endprologue
	movq	%rcx, 16(%rbp)
	movq	%rdx, 24(%rbp)
	movq	%r8, 32(%rbp)
	movq	24(%rbp), %rax
	movq	%rax, %rcx
	call	_ZSt7forwardIRSt17_Rb_tree_iteratorINSt7__cxx1112basic_stringIcSt11char_traitsIcESaIcEEEEEOT_RNSt16remove_referenceIS9_E4typeE
	movq	%rax, %rdx
	movq	16(%rbp), %rax
	movq	%rax, %rcx
	call	_ZNSt23_Rb_tree_const_iteratorINSt7__cxx1112basic_stringIcSt11char_traitsIcESaIcEEEEC1ERKSt17_Rb_tree_iteratorIS5_E
	movq	32(%rbp), %rax
	movq	%rax, %rcx
	call	_ZSt7forwardIRbEOT_RNSt16remove_referenceIS1_E4typeE
	movzbl	(%rax), %edx
	movq	16(%rbp), %rax
	movb	%dl, 8(%rax)
	nop
	addq	$32, %rsp
	popq	%rbp
	ret
	.seh_endproc
	.section	.text$_ZNSt3setINSt7__cxx1112basic_stringIcSt11char_traitsIcESaIcEEESt4lessIS5_ESaIS5_EE6insertERKS5_,"x"
	.linkonce discard
	.align 2
	.globl	_ZNSt3setINSt7__cxx1112basic_stringIcSt11char_traitsIcESaIcEEESt4lessIS5_ESaIS5_EE6insertERKS5_
	.def	_ZNSt3setINSt7__cxx1112basic_stringIcSt11char_traitsIcESaIcEEESt4lessIS5_ESaIS5_EE6insertERKS5_;	.scl	2;	.type	32;	.endef
	.seh_proc	_ZNSt3setINSt7__cxx1112basic_stringIcSt11char_traitsIcESaIcEEESt4lessIS5_ESaIS5_EE6insertERKS5_
_ZNSt3setINSt7__cxx1112basic_stringIcSt11char_traitsIcESaIcEEESt4lessIS5_ESaIS5_EE6insertERKS5_:
.LFB2670:
	pushq	%rbp
	.seh_pushreg	%rbp
	movq	%rsp, %rbp
	.seh_setframe	%rbp, 0
	subq	$48, %rsp
	.seh_stackalloc	48
	.seh_endprologue
	movq	%rcx, 16(%rbp)
	movq	%rdx, 24(%rbp)
	movq	%r8, 32(%rbp)
	movq	24(%rbp), %rdx
	leaq	-16(%rbp), %rax
	movq	32(%rbp), %rcx
	movq	%rcx, %r8
	movq	%rax, %rcx
	call	_ZNSt8_Rb_treeINSt7__cxx1112basic_stringIcSt11char_traitsIcESaIcEEES5_St9_IdentityIS5_ESt4lessIS5_ESaIS5_EE16_M_insert_uniqueIRKS5_EESt4pairISt17_Rb_tree_iteratorIS5_EbEOT_
	leaq	-16(%rbp), %rax
	leaq	8(%rax), %rdx
	leaq	-16(%rbp), %rax
	movq	%rdx, %r8
	movq	%rax, %rdx
	movq	16(%rbp), %rcx
	call	_ZNSt4pairISt23_Rb_tree_const_iteratorINSt7__cxx1112basic_stringIcSt11char_traitsIcESaIcEEEEbEC1IRSt17_Rb_tree_iteratorIS6_ERbLb1EEEOT_OT0_
	movq	16(%rbp), %rax
	addq	$48, %rsp
	popq	%rbp
	ret
	.seh_endproc
	.section	.text$_ZNSt3setINSt7__cxx1112basic_stringIcSt11char_traitsIcESaIcEEESt4lessIS5_ESaIS5_EE4findERKS5_,"x"
	.linkonce discard
	.align 2
	.globl	_ZNSt3setINSt7__cxx1112basic_stringIcSt11char_traitsIcESaIcEEESt4lessIS5_ESaIS5_EE4findERKS5_
	.def	_ZNSt3setINSt7__cxx1112basic_stringIcSt11char_traitsIcESaIcEEESt4lessIS5_ESaIS5_EE4findERKS5_;	.scl	2;	.type	32;	.endef
	.seh_proc	_ZNSt3setINSt7__cxx1112basic_stringIcSt11char_traitsIcESaIcEEESt4lessIS5_ESaIS5_EE4findERKS5_
_ZNSt3setINSt7__cxx1112basic_stringIcSt11char_traitsIcESaIcEEESt4lessIS5_ESaIS5_EE4findERKS5_:
.LFB2694:
	pushq	%rbp
	.seh_pushreg	%rbp
	movq	%rsp, %rbp
	.seh_setframe	%rbp, 0
	subq	$64, %rsp
	.seh_stackalloc	64
	.seh_endprologue
	movq	%rcx, 16(%rbp)
	movq	%rdx, 24(%rbp)
	movq	16(%rbp), %rax
	movq	24(%rbp), %rdx
	movq	%rax, %rcx
	call	_ZNSt8_Rb_treeINSt7__cxx1112basic_stringIcSt11char_traitsIcESaIcEEES5_St9_IdentityIS5_ESt4lessIS5_ESaIS5_EE4findERKS5_
	movq	%rax, -16(%rbp)
	leaq	-16(%rbp), %rdx
	leaq	-32(%rbp), %rax
	movq	%rax, %rcx
	call	_ZNSt23_Rb_tree_const_iteratorINSt7__cxx1112basic_stringIcSt11char_traitsIcESaIcEEEEC1ERKSt17_Rb_tree_iteratorIS5_E
	movq	-32(%rbp), %rax
	addq	$64, %rsp
	popq	%rbp
	ret
	.seh_endproc
	.section	.text$_ZNKSt3setINSt7__cxx1112basic_stringIcSt11char_traitsIcESaIcEEESt4lessIS5_ESaIS5_EE3endEv,"x"
	.linkonce discard
	.align 2
	.globl	_ZNKSt3setINSt7__cxx1112basic_stringIcSt11char_traitsIcESaIcEEESt4lessIS5_ESaIS5_EE3endEv
	.def	_ZNKSt3setINSt7__cxx1112basic_stringIcSt11char_traitsIcESaIcEEESt4lessIS5_ESaIS5_EE3endEv;	.scl	2;	.type	32;	.endef
	.seh_proc	_ZNKSt3setINSt7__cxx1112basic_stringIcSt11char_traitsIcESaIcEEESt4lessIS5_ESaIS5_EE3endEv
_ZNKSt3setINSt7__cxx1112basic_stringIcSt11char_traitsIcESaIcEEESt4lessIS5_ESaIS5_EE3endEv:
.LFB2695:
	pushq	%rbp
	.seh_pushreg	%rbp
	movq	%rsp, %rbp
	.seh_setframe	%rbp, 0
	subq	$32, %rsp
	.seh_stackalloc	32
	.seh_endprologue
	movq	%rcx, 16(%rbp)
	movq	16(%rbp), %rax
	movq	%rax, %rcx
	call	_ZNKSt8_Rb_treeINSt7__cxx1112basic_stringIcSt11char_traitsIcESaIcEEES5_St9_IdentityIS5_ESt4lessIS5_ESaIS5_EE3endEv
	addq	$32, %rsp
	popq	%rbp
	ret
	.seh_endproc
	.section	.text$_ZNKSt23_Rb_tree_const_iteratorINSt7__cxx1112basic_stringIcSt11char_traitsIcESaIcEEEEeqERKS6_,"x"
	.linkonce discard
	.align 2
	.globl	_ZNKSt23_Rb_tree_const_iteratorINSt7__cxx1112basic_stringIcSt11char_traitsIcESaIcEEEEeqERKS6_
	.def	_ZNKSt23_Rb_tree_const_iteratorINSt7__cxx1112basic_stringIcSt11char_traitsIcESaIcEEEEeqERKS6_;	.scl	2;	.type	32;	.endef
	.seh_proc	_ZNKSt23_Rb_tree_const_iteratorINSt7__cxx1112basic_stringIcSt11char_traitsIcESaIcEEEEeqERKS6_
_ZNKSt23_Rb_tree_const_iteratorINSt7__cxx1112basic_stringIcSt11char_traitsIcESaIcEEEEeqERKS6_:
.LFB2696:
	pushq	%rbp
	.seh_pushreg	%rbp
	movq	%rsp, %rbp
	.seh_setframe	%rbp, 0
	.seh_endprologue
	movq	%rcx, 16(%rbp)
	movq	%rdx, 24(%rbp)
	movq	16(%rbp), %rax
	movq	(%rax), %rdx
	movq	24(%rbp), %rax
	movq	(%rax), %rax
	cmpq	%rax, %rdx
	sete	%al
	popq	%rbp
	ret
	.seh_endproc
	.section	.text$_ZSt4sortIP13Keywords_rateEvT_S2_,"x"
	.linkonce discard
	.globl	_ZSt4sortIP13Keywords_rateEvT_S2_
	.def	_ZSt4sortIP13Keywords_rateEvT_S2_;	.scl	2;	.type	32;	.endef
	.seh_proc	_ZSt4sortIP13Keywords_rateEvT_S2_
_ZSt4sortIP13Keywords_rateEvT_S2_:
.LFB2699:
	pushq	%rbp
	.seh_pushreg	%rbp
	pushq	%rbx
	.seh_pushreg	%rbx
	subq	$56, %rsp
	.seh_stackalloc	56
	leaq	128(%rsp), %rbp
	.seh_setframe	%rbp, 128
	.seh_endprologue
	movq	%rcx, -48(%rbp)
	movq	%rdx, -40(%rbp)
	call	_ZN9__gnu_cxx5__ops16__iter_less_iterEv
	movq	-40(%rbp), %rax
	movl	%ebx, %r8d
	movq	%rax, %rdx
	movq	-48(%rbp), %rcx
	call	_ZSt6__sortIP13Keywords_rateN9__gnu_cxx5__ops15_Iter_less_iterEEvT_S5_T0_
	nop
	addq	$56, %rsp
	popq	%rbx
	popq	%rbp
	ret
	.seh_endproc
	.section	.text$_ZNSt8_Rb_treeINSt7__cxx1112basic_stringIcSt11char_traitsIcESaIcEEES5_St9_IdentityIS5_ESt4lessIS5_ESaIS5_EE13_Rb_tree_implIS9_Lb1EED1Ev,"x"
	.linkonce discard
	.align 2
	.globl	_ZNSt8_Rb_treeINSt7__cxx1112basic_stringIcSt11char_traitsIcESaIcEEES5_St9_IdentityIS5_ESt4lessIS5_ESaIS5_EE13_Rb_tree_implIS9_Lb1EED1Ev
	.def	_ZNSt8_Rb_treeINSt7__cxx1112basic_stringIcSt11char_traitsIcESaIcEEES5_St9_IdentityIS5_ESt4lessIS5_ESaIS5_EE13_Rb_tree_implIS9_Lb1EED1Ev;	.scl	2;	.type	32;	.endef
	.seh_proc	_ZNSt8_Rb_treeINSt7__cxx1112basic_stringIcSt11char_traitsIcESaIcEEES5_St9_IdentityIS5_ESt4lessIS5_ESaIS5_EE13_Rb_tree_implIS9_Lb1EED1Ev
_ZNSt8_Rb_treeINSt7__cxx1112basic_stringIcSt11char_traitsIcESaIcEEES5_St9_IdentityIS5_ESt4lessIS5_ESaIS5_EE13_Rb_tree_implIS9_Lb1EED1Ev:
.LFB2795:
	pushq	%rbp
	.seh_pushreg	%rbp
	movq	%rsp, %rbp
	.seh_setframe	%rbp, 0
	subq	$32, %rsp
	.seh_stackalloc	32
	.seh_endprologue
	movq	%rcx, 16(%rbp)
	movq	16(%rbp), %rcx
	call	_ZNSaISt13_Rb_tree_nodeINSt7__cxx1112basic_stringIcSt11char_traitsIcESaIcEEEEED2Ev
	nop
	addq	$32, %rsp
	popq	%rbp
	ret
	.seh_endproc
	.section	.text$_ZNSt8_Rb_treeINSt7__cxx1112basic_stringIcSt11char_traitsIcESaIcEEES5_St9_IdentityIS5_ESt4lessIS5_ESaIS5_EEC1Ev,"x"
	.linkonce discard
	.align 2
	.globl	_ZNSt8_Rb_treeINSt7__cxx1112basic_stringIcSt11char_traitsIcESaIcEEES5_St9_IdentityIS5_ESt4lessIS5_ESaIS5_EEC1Ev
	.def	_ZNSt8_Rb_treeINSt7__cxx1112basic_stringIcSt11char_traitsIcESaIcEEES5_St9_IdentityIS5_ESt4lessIS5_ESaIS5_EEC1Ev;	.scl	2;	.type	32;	.endef
	.seh_proc	_ZNSt8_Rb_treeINSt7__cxx1112basic_stringIcSt11char_traitsIcESaIcEEES5_St9_IdentityIS5_ESt4lessIS5_ESaIS5_EEC1Ev
_ZNSt8_Rb_treeINSt7__cxx1112basic_stringIcSt11char_traitsIcESaIcEEES5_St9_IdentityIS5_ESt4lessIS5_ESaIS5_EEC1Ev:
.LFB2797:
	pushq	%rbp
	.seh_pushreg	%rbp
	movq	%rsp, %rbp
	.seh_setframe	%rbp, 0
	subq	$32, %rsp
	.seh_stackalloc	32
	.seh_endprologue
	movq	%rcx, 16(%rbp)
	movq	16(%rbp), %rax
	movq	%rax, %rcx
	call	_ZNSt8_Rb_treeINSt7__cxx1112basic_stringIcSt11char_traitsIcESaIcEEES5_St9_IdentityIS5_ESt4lessIS5_ESaIS5_EE13_Rb_tree_implIS9_Lb1EEC1Ev
	nop
	addq	$32, %rsp
	popq	%rbp
	ret
	.seh_endproc
	.section	.text$_ZNSt8_Rb_treeINSt7__cxx1112basic_stringIcSt11char_traitsIcESaIcEEES5_St9_IdentityIS5_ESt4lessIS5_ESaIS5_EED1Ev,"x"
	.linkonce discard
	.align 2
	.globl	_ZNSt8_Rb_treeINSt7__cxx1112basic_stringIcSt11char_traitsIcESaIcEEES5_St9_IdentityIS5_ESt4lessIS5_ESaIS5_EED1Ev
	.def	_ZNSt8_Rb_treeINSt7__cxx1112basic_stringIcSt11char_traitsIcESaIcEEES5_St9_IdentityIS5_ESt4lessIS5_ESaIS5_EED1Ev;	.scl	2;	.type	32;	.endef
	.seh_proc	_ZNSt8_Rb_treeINSt7__cxx1112basic_stringIcSt11char_traitsIcESaIcEEES5_St9_IdentityIS5_ESt4lessIS5_ESaIS5_EED1Ev
_ZNSt8_Rb_treeINSt7__cxx1112basic_stringIcSt11char_traitsIcESaIcEEES5_St9_IdentityIS5_ESt4lessIS5_ESaIS5_EED1Ev:
.LFB2800:
	pushq	%rbp
	.seh_pushreg	%rbp
	movq	%rsp, %rbp
	.seh_setframe	%rbp, 0
	subq	$32, %rsp
	.seh_stackalloc	32
	.seh_endprologue
	movq	%rcx, 16(%rbp)
	movq	16(%rbp), %rcx
	call	_ZNSt8_Rb_treeINSt7__cxx1112basic_stringIcSt11char_traitsIcESaIcEEES5_St9_IdentityIS5_ESt4lessIS5_ESaIS5_EE8_M_beginEv
	movq	%rax, %rdx
	movq	16(%rbp), %rcx
	call	_ZNSt8_Rb_treeINSt7__cxx1112basic_stringIcSt11char_traitsIcESaIcEEES5_St9_IdentityIS5_ESt4lessIS5_ESaIS5_EE8_M_eraseEPSt13_Rb_tree_nodeIS5_E
	movq	16(%rbp), %rax
	movq	%rax, %rcx
	call	_ZNSt8_Rb_treeINSt7__cxx1112basic_stringIcSt11char_traitsIcESaIcEEES5_St9_IdentityIS5_ESt4lessIS5_ESaIS5_EE13_Rb_tree_implIS9_Lb1EED1Ev
	nop
	addq	$32, %rsp
	popq	%rbp
	ret
	.seh_handler	__gxx_personality_seh0, @unwind, @except
	.seh_handlerdata
.LLSDA2800:
	.byte	0xff
	.byte	0xff
	.byte	0x1
	.uleb128 .LLSDACSE2800-.LLSDACSB2800
.LLSDACSB2800:
.LLSDACSE2800:
	.section	.text$_ZNSt8_Rb_treeINSt7__cxx1112basic_stringIcSt11char_traitsIcESaIcEEES5_St9_IdentityIS5_ESt4lessIS5_ESaIS5_EED1Ev,"x"
	.linkonce discard
	.seh_endproc
	.section	.text$_ZSt7forwardIRKNSt7__cxx1112basic_stringIcSt11char_traitsIcESaIcEEEEOT_RNSt16remove_referenceIS8_E4typeE,"x"
	.linkonce discard
	.globl	_ZSt7forwardIRKNSt7__cxx1112basic_stringIcSt11char_traitsIcESaIcEEEEOT_RNSt16remove_referenceIS8_E4typeE
	.def	_ZSt7forwardIRKNSt7__cxx1112basic_stringIcSt11char_traitsIcESaIcEEEEOT_RNSt16remove_referenceIS8_E4typeE;	.scl	2;	.type	32;	.endef
	.seh_proc	_ZSt7forwardIRKNSt7__cxx1112basic_stringIcSt11char_traitsIcESaIcEEEEOT_RNSt16remove_referenceIS8_E4typeE
_ZSt7forwardIRKNSt7__cxx1112basic_stringIcSt11char_traitsIcESaIcEEEEOT_RNSt16remove_referenceIS8_E4typeE:
.LFB2839:
	pushq	%rbp
	.seh_pushreg	%rbp
	movq	%rsp, %rbp
	.seh_setframe	%rbp, 0
	.seh_endprologue
	movq	%rcx, 16(%rbp)
	movq	16(%rbp), %rax
	popq	%rbp
	ret
	.seh_endproc
	.section	.text$_ZSt7forwardISt17_Rb_tree_iteratorINSt7__cxx1112basic_stringIcSt11char_traitsIcESaIcEEEEEOT_RNSt16remove_referenceIS8_E4typeE,"x"
	.linkonce discard
	.globl	_ZSt7forwardISt17_Rb_tree_iteratorINSt7__cxx1112basic_stringIcSt11char_traitsIcESaIcEEEEEOT_RNSt16remove_referenceIS8_E4typeE
	.def	_ZSt7forwardISt17_Rb_tree_iteratorINSt7__cxx1112basic_stringIcSt11char_traitsIcESaIcEEEEEOT_RNSt16remove_referenceIS8_E4typeE;	.scl	2;	.type	32;	.endef
	.seh_proc	_ZSt7forwardISt17_Rb_tree_iteratorINSt7__cxx1112basic_stringIcSt11char_traitsIcESaIcEEEEEOT_RNSt16remove_referenceIS8_E4typeE
_ZSt7forwardISt17_Rb_tree_iteratorINSt7__cxx1112basic_stringIcSt11char_traitsIcESaIcEEEEEOT_RNSt16remove_referenceIS8_E4typeE:
.LFB2843:
	pushq	%rbp
	.seh_pushreg	%rbp
	movq	%rsp, %rbp
	.seh_setframe	%rbp, 0
	.seh_endprologue
	movq	%rcx, 16(%rbp)
	movq	16(%rbp), %rax
	popq	%rbp
	ret
	.seh_endproc
	.section	.text$_ZSt7forwardIbEOT_RNSt16remove_referenceIS0_E4typeE,"x"
	.linkonce discard
	.globl	_ZSt7forwardIbEOT_RNSt16remove_referenceIS0_E4typeE
	.def	_ZSt7forwardIbEOT_RNSt16remove_referenceIS0_E4typeE;	.scl	2;	.type	32;	.endef
	.seh_proc	_ZSt7forwardIbEOT_RNSt16remove_referenceIS0_E4typeE
_ZSt7forwardIbEOT_RNSt16remove_referenceIS0_E4typeE:
.LFB2844:
	pushq	%rbp
	.seh_pushreg	%rbp
	movq	%rsp, %rbp
	.seh_setframe	%rbp, 0
	.seh_endprologue
	movq	%rcx, 16(%rbp)
	movq	16(%rbp), %rax
	popq	%rbp
	ret
	.seh_endproc
	.section	.text$_ZNSt4pairISt17_Rb_tree_iteratorINSt7__cxx1112basic_stringIcSt11char_traitsIcESaIcEEEEbEC1IS7_bLb1EEEOT_OT0_,"x"
	.linkonce discard
	.align 2
	.globl	_ZNSt4pairISt17_Rb_tree_iteratorINSt7__cxx1112basic_stringIcSt11char_traitsIcESaIcEEEEbEC1IS7_bLb1EEEOT_OT0_
	.def	_ZNSt4pairISt17_Rb_tree_iteratorINSt7__cxx1112basic_stringIcSt11char_traitsIcESaIcEEEEbEC1IS7_bLb1EEEOT_OT0_;	.scl	2;	.type	32;	.endef
	.seh_proc	_ZNSt4pairISt17_Rb_tree_iteratorINSt7__cxx1112basic_stringIcSt11char_traitsIcESaIcEEEEbEC1IS7_bLb1EEEOT_OT0_
_ZNSt4pairISt17_Rb_tree_iteratorINSt7__cxx1112basic_stringIcSt11char_traitsIcESaIcEEEEbEC1IS7_bLb1EEEOT_OT0_:
.LFB2846:
	pushq	%rbp
	.seh_pushreg	%rbp
	movq	%rsp, %rbp
	.seh_setframe	%rbp, 0
	subq	$32, %rsp
	.seh_stackalloc	32
	.seh_endprologue
	movq	%rcx, 16(%rbp)
	movq	%rdx, 24(%rbp)
	movq	%r8, 32(%rbp)
	movq	24(%rbp), %rax
	movq	%rax, %rcx
	call	_ZSt7forwardISt17_Rb_tree_iteratorINSt7__cxx1112basic_stringIcSt11char_traitsIcESaIcEEEEEOT_RNSt16remove_referenceIS8_E4typeE
	movq	%rax, %rdx
	movq	16(%rbp), %rax
	movq	(%rdx), %rdx
	movq	%rdx, (%rax)
	movq	32(%rbp), %rax
	movq	%rax, %rcx
	call	_ZSt7forwardIbEOT_RNSt16remove_referenceIS0_E4typeE
	movzbl	(%rax), %edx
	movq	16(%rbp), %rax
	movb	%dl, 8(%rax)
	nop
	addq	$32, %rsp
	popq	%rbp
	ret
	.seh_endproc
	.section	.text$_ZNSt8_Rb_treeINSt7__cxx1112basic_stringIcSt11char_traitsIcESaIcEEES5_St9_IdentityIS5_ESt4lessIS5_ESaIS5_EE16_M_insert_uniqueIRKS5_EESt4pairISt17_Rb_tree_iteratorIS5_EbEOT_,"x"
	.linkonce discard
	.align 2
	.globl	_ZNSt8_Rb_treeINSt7__cxx1112basic_stringIcSt11char_traitsIcESaIcEEES5_St9_IdentityIS5_ESt4lessIS5_ESaIS5_EE16_M_insert_uniqueIRKS5_EESt4pairISt17_Rb_tree_iteratorIS5_EbEOT_
	.def	_ZNSt8_Rb_treeINSt7__cxx1112basic_stringIcSt11char_traitsIcESaIcEEES5_St9_IdentityIS5_ESt4lessIS5_ESaIS5_EE16_M_insert_uniqueIRKS5_EESt4pairISt17_Rb_tree_iteratorIS5_EbEOT_;	.scl	2;	.type	32;	.endef
	.seh_proc	_ZNSt8_Rb_treeINSt7__cxx1112basic_stringIcSt11char_traitsIcESaIcEEES5_St9_IdentityIS5_ESt4lessIS5_ESaIS5_EE16_M_insert_uniqueIRKS5_EESt4pairISt17_Rb_tree_iteratorIS5_EbEOT_
_ZNSt8_Rb_treeINSt7__cxx1112basic_stringIcSt11char_traitsIcESaIcEEES5_St9_IdentityIS5_ESt4lessIS5_ESaIS5_EE16_M_insert_uniqueIRKS5_EESt4pairISt17_Rb_tree_iteratorIS5_EbEOT_:
.LFB2834:
	pushq	%rbp
	.seh_pushreg	%rbp
	movq	%rsp, %rbp
	.seh_setframe	%rbp, 0
	addq	$-128, %rsp
	.seh_stackalloc	128
	.seh_endprologue
	movq	%rcx, 16(%rbp)
	movq	%rdx, 24(%rbp)
	movq	%r8, 32(%rbp)
	movq	32(%rbp), %rdx
	leaq	-34(%rbp), %rax
	movq	%rax, %rcx
	call	_ZNKSt9_IdentityINSt7__cxx1112basic_stringIcSt11char_traitsIcESaIcEEEEclERKS5_
	movq	%rax, %rcx
	leaq	-64(%rbp), %rax
	movq	24(%rbp), %rdx
	movq	%rcx, %r8
	movq	%rax, %rcx
	call	_ZNSt8_Rb_treeINSt7__cxx1112basic_stringIcSt11char_traitsIcESaIcEEES5_St9_IdentityIS5_ESt4lessIS5_ESaIS5_EE24_M_get_insert_unique_posERKS5_
	movq	-56(%rbp), %rax
	testq	%rax, %rax
	je	.L164
	movq	24(%rbp), %rdx
	leaq	-80(%rbp), %rax
	movq	%rax, %rcx
	call	_ZNSt8_Rb_treeINSt7__cxx1112basic_stringIcSt11char_traitsIcESaIcEEES5_St9_IdentityIS5_ESt4lessIS5_ESaIS5_EE11_Alloc_nodeC1ERSB_
	movb	$1, -33(%rbp)
	movq	32(%rbp), %rax
	movq	%rax, %rcx
	call	_ZSt7forwardIRKNSt7__cxx1112basic_stringIcSt11char_traitsIcESaIcEEEEOT_RNSt16remove_referenceIS8_E4typeE
	movq	%rax, %r9
	movq	-56(%rbp), %r8
	movq	-64(%rbp), %rdx
	movq	24(%rbp), %rax
	leaq	-80(%rbp), %rcx
	movq	%rcx, 32(%rsp)
	movq	%rax, %rcx
	call	_ZNSt8_Rb_treeINSt7__cxx1112basic_stringIcSt11char_traitsIcESaIcEEES5_St9_IdentityIS5_ESt4lessIS5_ESaIS5_EE10_M_insert_IRKS5_NSB_11_Alloc_nodeEEESt17_Rb_tree_iteratorIS5_EPSt18_Rb_tree_node_baseSJ_OT_RT0_
	movq	%rax, -32(%rbp)
	leaq	-33(%rbp), %rdx
	leaq	-32(%rbp), %rax
	movq	%rdx, %r8
	movq	%rax, %rdx
	movq	16(%rbp), %rcx
	call	_ZNSt4pairISt17_Rb_tree_iteratorINSt7__cxx1112basic_stringIcSt11char_traitsIcESaIcEEEEbEC1IS7_bLb1EEEOT_OT0_
	jmp	.L163
.L164:
	movb	$0, -17(%rbp)
	movq	-64(%rbp), %rdx
	leaq	-16(%rbp), %rax
	movq	%rax, %rcx
	call	_ZNSt17_Rb_tree_iteratorINSt7__cxx1112basic_stringIcSt11char_traitsIcESaIcEEEEC1EPSt18_Rb_tree_node_base
	leaq	-17(%rbp), %rdx
	leaq	-16(%rbp), %rax
	movq	%rdx, %r8
	movq	%rax, %rdx
	movq	16(%rbp), %rcx
	call	_ZNSt4pairISt17_Rb_tree_iteratorINSt7__cxx1112basic_stringIcSt11char_traitsIcESaIcEEEEbEC1IS7_bLb1EEEOT_OT0_
.L163:
	movq	16(%rbp), %rax
	subq	$-128, %rsp
	popq	%rbp
	ret
	.seh_endproc
	.section	.text$_ZNSt23_Rb_tree_const_iteratorINSt7__cxx1112basic_stringIcSt11char_traitsIcESaIcEEEEC1ERKSt17_Rb_tree_iteratorIS5_E,"x"
	.linkonce discard
	.align 2
	.globl	_ZNSt23_Rb_tree_const_iteratorINSt7__cxx1112basic_stringIcSt11char_traitsIcESaIcEEEEC1ERKSt17_Rb_tree_iteratorIS5_E
	.def	_ZNSt23_Rb_tree_const_iteratorINSt7__cxx1112basic_stringIcSt11char_traitsIcESaIcEEEEC1ERKSt17_Rb_tree_iteratorIS5_E;	.scl	2;	.type	32;	.endef
	.seh_proc	_ZNSt23_Rb_tree_const_iteratorINSt7__cxx1112basic_stringIcSt11char_traitsIcESaIcEEEEC1ERKSt17_Rb_tree_iteratorIS5_E
_ZNSt23_Rb_tree_const_iteratorINSt7__cxx1112basic_stringIcSt11char_traitsIcESaIcEEEEC1ERKSt17_Rb_tree_iteratorIS5_E:
.LFB2849:
	pushq	%rbp
	.seh_pushreg	%rbp
	movq	%rsp, %rbp
	.seh_setframe	%rbp, 0
	.seh_endprologue
	movq	%rcx, 16(%rbp)
	movq	%rdx, 24(%rbp)
	movq	24(%rbp), %rax
	movq	(%rax), %rdx
	movq	16(%rbp), %rax
	movq	%rdx, (%rax)
	nop
	popq	%rbp
	ret
	.seh_endproc
	.section	.text$_ZNKSt4lessINSt7__cxx1112basic_stringIcSt11char_traitsIcESaIcEEEEclERKS5_S8_,"x"
	.linkonce discard
	.align 2
	.globl	_ZNKSt4lessINSt7__cxx1112basic_stringIcSt11char_traitsIcESaIcEEEEclERKS5_S8_
	.def	_ZNKSt4lessINSt7__cxx1112basic_stringIcSt11char_traitsIcESaIcEEEEclERKS5_S8_;	.scl	2;	.type	32;	.endef
	.seh_proc	_ZNKSt4lessINSt7__cxx1112basic_stringIcSt11char_traitsIcESaIcEEEEclERKS5_S8_
_ZNKSt4lessINSt7__cxx1112basic_stringIcSt11char_traitsIcESaIcEEEEclERKS5_S8_:
.LFB2851:
	pushq	%rbp
	.seh_pushreg	%rbp
	movq	%rsp, %rbp
	.seh_setframe	%rbp, 0
	subq	$32, %rsp
	.seh_stackalloc	32
	.seh_endprologue
	movq	%rcx, 16(%rbp)
	movq	%rdx, 24(%rbp)
	movq	%r8, 32(%rbp)
	movq	32(%rbp), %rdx
	movq	24(%rbp), %rax
	movq	%rax, %rcx
	call	_ZStltIcSt11char_traitsIcESaIcEEbRKNSt7__cxx1112basic_stringIT_T0_T1_EESA_
	addq	$32, %rsp
	popq	%rbp
	ret
	.seh_endproc
	.section	.text$_ZNSt8_Rb_treeINSt7__cxx1112basic_stringIcSt11char_traitsIcESaIcEEES5_St9_IdentityIS5_ESt4lessIS5_ESaIS5_EE4findERKS5_,"x"
	.linkonce discard
	.align 2
	.globl	_ZNSt8_Rb_treeINSt7__cxx1112basic_stringIcSt11char_traitsIcESaIcEEES5_St9_IdentityIS5_ESt4lessIS5_ESaIS5_EE4findERKS5_
	.def	_ZNSt8_Rb_treeINSt7__cxx1112basic_stringIcSt11char_traitsIcESaIcEEES5_St9_IdentityIS5_ESt4lessIS5_ESaIS5_EE4findERKS5_;	.scl	2;	.type	32;	.endef
	.seh_proc	_ZNSt8_Rb_treeINSt7__cxx1112basic_stringIcSt11char_traitsIcESaIcEEES5_St9_IdentityIS5_ESt4lessIS5_ESaIS5_EE4findERKS5_
_ZNSt8_Rb_treeINSt7__cxx1112basic_stringIcSt11char_traitsIcESaIcEEES5_St9_IdentityIS5_ESt4lessIS5_ESaIS5_EE4findERKS5_:
.LFB2850:
	pushq	%rbp
	.seh_pushreg	%rbp
	pushq	%rbx
	.seh_pushreg	%rbx
	subq	$72, %rsp
	.seh_stackalloc	72
	leaq	128(%rsp), %rbp
	.seh_setframe	%rbp, 128
	.seh_endprologue
	movq	%rcx, -32(%rbp)
	movq	%rdx, -24(%rbp)
	movq	-32(%rbp), %rcx
	call	_ZNSt8_Rb_treeINSt7__cxx1112basic_stringIcSt11char_traitsIcESaIcEEES5_St9_IdentityIS5_ESt4lessIS5_ESaIS5_EE6_M_endEv
	movq	%rax, %rbx
	movq	-32(%rbp), %rcx
	call	_ZNSt8_Rb_treeINSt7__cxx1112basic_stringIcSt11char_traitsIcESaIcEEES5_St9_IdentityIS5_ESt4lessIS5_ESaIS5_EE8_M_beginEv
	movq	%rax, %rdx
	movq	-24(%rbp), %rax
	movq	%rax, %r9
	movq	%rbx, %r8
	movq	-32(%rbp), %rcx
.LEHB26:
	call	_ZNSt8_Rb_treeINSt7__cxx1112basic_stringIcSt11char_traitsIcESaIcEEES5_St9_IdentityIS5_ESt4lessIS5_ESaIS5_EE14_M_lower_boundEPSt13_Rb_tree_nodeIS5_EPSt18_Rb_tree_node_baseRKS5_
.LEHE26:
	movq	%rax, -96(%rbp)
	movq	-32(%rbp), %rcx
	call	_ZNSt8_Rb_treeINSt7__cxx1112basic_stringIcSt11char_traitsIcESaIcEEES5_St9_IdentityIS5_ESt4lessIS5_ESaIS5_EE3endEv
	movq	%rax, -80(%rbp)
	movl	$1, %ebx
	leaq	-80(%rbp), %rdx
	leaq	-96(%rbp), %rax
	movq	%rax, %rcx
	call	_ZNKSt17_Rb_tree_iteratorINSt7__cxx1112basic_stringIcSt11char_traitsIcESaIcEEEEeqERKS6_
	testb	%al, %al
	jne	.L171
	movq	-96(%rbp), %rax
	movq	%rax, %rcx
.LEHB27:
	call	_ZNSt8_Rb_treeINSt7__cxx1112basic_stringIcSt11char_traitsIcESaIcEEES5_St9_IdentityIS5_ESt4lessIS5_ESaIS5_EE6_S_keyEPKSt18_Rb_tree_node_base
.LEHE27:
	movq	%rax, %rcx
	movq	-32(%rbp), %rax
	movq	-24(%rbp), %rdx
	movq	%rcx, %r8
	movq	%rax, %rcx
	call	_ZNKSt4lessINSt7__cxx1112basic_stringIcSt11char_traitsIcESaIcEEEEclERKS5_S8_
	testb	%al, %al
	je	.L172
.L171:
	movq	-32(%rbp), %rcx
	call	_ZNSt8_Rb_treeINSt7__cxx1112basic_stringIcSt11char_traitsIcESaIcEEES5_St9_IdentityIS5_ESt4lessIS5_ESaIS5_EE3endEv
	jmp	.L179
.L172:
	movq	-96(%rbp), %rax
.L179:
	testb	%bl, %bl
	jmp	.L180
.L178:
	testb	%bl, %bl
	nop
	movq	%rax, %rcx
.LEHB28:
	call	_Unwind_Resume
.LEHE28:
.L180:
	addq	$72, %rsp
	popq	%rbx
	popq	%rbp
	ret
	.seh_handler	__gxx_personality_seh0, @unwind, @except
	.seh_handlerdata
.LLSDA2850:
	.byte	0xff
	.byte	0xff
	.byte	0x1
	.uleb128 .LLSDACSE2850-.LLSDACSB2850
.LLSDACSB2850:
	.uleb128 .LEHB26-.LFB2850
	.uleb128 .LEHE26-.LEHB26
	.uleb128 0
	.uleb128 0
	.uleb128 .LEHB27-.LFB2850
	.uleb128 .LEHE27-.LEHB27
	.uleb128 .L178-.LFB2850
	.uleb128 0
	.uleb128 .LEHB28-.LFB2850
	.uleb128 .LEHE28-.LEHB28
	.uleb128 0
	.uleb128 0
.LLSDACSE2850:
	.section	.text$_ZNSt8_Rb_treeINSt7__cxx1112basic_stringIcSt11char_traitsIcESaIcEEES5_St9_IdentityIS5_ESt4lessIS5_ESaIS5_EE4findERKS5_,"x"
	.linkonce discard
	.seh_endproc
	.section	.text$_ZNKSt8_Rb_treeINSt7__cxx1112basic_stringIcSt11char_traitsIcESaIcEEES5_St9_IdentityIS5_ESt4lessIS5_ESaIS5_EE3endEv,"x"
	.linkonce discard
	.align 2
	.globl	_ZNKSt8_Rb_treeINSt7__cxx1112basic_stringIcSt11char_traitsIcESaIcEEES5_St9_IdentityIS5_ESt4lessIS5_ESaIS5_EE3endEv
	.def	_ZNKSt8_Rb_treeINSt7__cxx1112basic_stringIcSt11char_traitsIcESaIcEEES5_St9_IdentityIS5_ESt4lessIS5_ESaIS5_EE3endEv;	.scl	2;	.type	32;	.endef
	.seh_proc	_ZNKSt8_Rb_treeINSt7__cxx1112basic_stringIcSt11char_traitsIcESaIcEEES5_St9_IdentityIS5_ESt4lessIS5_ESaIS5_EE3endEv
_ZNKSt8_Rb_treeINSt7__cxx1112basic_stringIcSt11char_traitsIcESaIcEEES5_St9_IdentityIS5_ESt4lessIS5_ESaIS5_EE3endEv:
.LFB2852:
	pushq	%rbp
	.seh_pushreg	%rbp
	movq	%rsp, %rbp
	.seh_setframe	%rbp, 0
	subq	$48, %rsp
	.seh_stackalloc	48
	.seh_endprologue
	movq	%rcx, 16(%rbp)
	movq	16(%rbp), %rax
	leaq	8(%rax), %rdx
	leaq	-16(%rbp), %rax
	movq	%rax, %rcx
	call	_ZNSt23_Rb_tree_const_iteratorINSt7__cxx1112basic_stringIcSt11char_traitsIcESaIcEEEEC1EPKSt18_Rb_tree_node_base
	movq	-16(%rbp), %rax
	addq	$48, %rsp
	popq	%rbp
	ret
	.seh_endproc
	.section	.text$_ZSt6__sortIP13Keywords_rateN9__gnu_cxx5__ops15_Iter_less_iterEEvT_S5_T0_,"x"
	.linkonce discard
	.globl	_ZSt6__sortIP13Keywords_rateN9__gnu_cxx5__ops15_Iter_less_iterEEvT_S5_T0_
	.def	_ZSt6__sortIP13Keywords_rateN9__gnu_cxx5__ops15_Iter_less_iterEEvT_S5_T0_;	.scl	2;	.type	32;	.endef
	.seh_proc	_ZSt6__sortIP13Keywords_rateN9__gnu_cxx5__ops15_Iter_less_iterEEvT_S5_T0_
_ZSt6__sortIP13Keywords_rateN9__gnu_cxx5__ops15_Iter_less_iterEEvT_S5_T0_:
.LFB2853:
	pushq	%rbp
	.seh_pushreg	%rbp
	pushq	%rsi
	.seh_pushreg	%rsi
	pushq	%rbx
	.seh_pushreg	%rbx
	movq	%rsp, %rbp
	.seh_setframe	%rbp, 0
	subq	$32, %rsp
	.seh_stackalloc	32
	.seh_endprologue
	movq	%rcx, 32(%rbp)
	movq	%rdx, 40(%rbp)
	movb	%r8b, 48(%rbp)
	movq	32(%rbp), %rax
	cmpq	40(%rbp), %rax
	je	.L185
	movq	40(%rbp), %rdx
	movq	32(%rbp), %rax
	subq	%rax, %rdx
	movq	%rdx, %rax
	sarq	$4, %rax
	movq	%rax, %rcx
	call	_ZSt4__lgx
	leaq	(%rax,%rax), %rdx
	movq	40(%rbp), %rax
	movl	%esi, %r9d
	movq	%rdx, %r8
	movq	%rax, %rdx
	movq	32(%rbp), %rcx
	call	_ZSt16__introsort_loopIP13Keywords_ratexN9__gnu_cxx5__ops15_Iter_less_iterEEvT_S5_T0_T1_
	movq	40(%rbp), %rax
	movl	%ebx, %r8d
	movq	%rax, %rdx
	movq	32(%rbp), %rcx
	call	_ZSt22__final_insertion_sortIP13Keywords_rateN9__gnu_cxx5__ops15_Iter_less_iterEEvT_S5_T0_
.L185:
	nop
	addq	$32, %rsp
	popq	%rbx
	popq	%rsi
	popq	%rbp
	ret
	.seh_endproc
	.section	.text$_ZNSt8_Rb_treeINSt7__cxx1112basic_stringIcSt11char_traitsIcESaIcEEES5_St9_IdentityIS5_ESt4lessIS5_ESaIS5_EE13_Rb_tree_implIS9_Lb1EEC1Ev,"x"
	.linkonce discard
	.align 2
	.globl	_ZNSt8_Rb_treeINSt7__cxx1112basic_stringIcSt11char_traitsIcESaIcEEES5_St9_IdentityIS5_ESt4lessIS5_ESaIS5_EE13_Rb_tree_implIS9_Lb1EEC1Ev
	.def	_ZNSt8_Rb_treeINSt7__cxx1112basic_stringIcSt11char_traitsIcESaIcEEES5_St9_IdentityIS5_ESt4lessIS5_ESaIS5_EE13_Rb_tree_implIS9_Lb1EEC1Ev;	.scl	2;	.type	32;	.endef
	.seh_proc	_ZNSt8_Rb_treeINSt7__cxx1112basic_stringIcSt11char_traitsIcESaIcEEES5_St9_IdentityIS5_ESt4lessIS5_ESaIS5_EE13_Rb_tree_implIS9_Lb1EEC1Ev
_ZNSt8_Rb_treeINSt7__cxx1112basic_stringIcSt11char_traitsIcESaIcEEES5_St9_IdentityIS5_ESt4lessIS5_ESaIS5_EE13_Rb_tree_implIS9_Lb1EEC1Ev:
.LFB2890:
	pushq	%rbp
	.seh_pushreg	%rbp
	movq	%rsp, %rbp
	.seh_setframe	%rbp, 0
	subq	$32, %rsp
	.seh_stackalloc	32
	.seh_endprologue
	movq	%rcx, 16(%rbp)
	movq	16(%rbp), %rcx
	call	_ZNSaISt13_Rb_tree_nodeINSt7__cxx1112basic_stringIcSt11char_traitsIcESaIcEEEEEC2Ev
	movq	16(%rbp), %rax
	movl	$0, 8(%rax)
	movq	16(%rbp), %rax
	movq	$0, 16(%rax)
	movq	16(%rbp), %rax
	movq	$0, 24(%rax)
	movq	16(%rbp), %rax
	movq	$0, 32(%rax)
	movq	16(%rbp), %rax
	movq	$0, 40(%rax)
	movq	16(%rbp), %rcx
	call	_ZNSt8_Rb_treeINSt7__cxx1112basic_stringIcSt11char_traitsIcESaIcEEES5_St9_IdentityIS5_ESt4lessIS5_ESaIS5_EE13_Rb_tree_implIS9_Lb1EE13_M_initializeEv
	nop
	addq	$32, %rsp
	popq	%rbp
	ret
	.seh_endproc
	.section	.text$_ZNSaISt13_Rb_tree_nodeINSt7__cxx1112basic_stringIcSt11char_traitsIcESaIcEEEEED2Ev,"x"
	.linkonce discard
	.align 2
	.globl	_ZNSaISt13_Rb_tree_nodeINSt7__cxx1112basic_stringIcSt11char_traitsIcESaIcEEEEED2Ev
	.def	_ZNSaISt13_Rb_tree_nodeINSt7__cxx1112basic_stringIcSt11char_traitsIcESaIcEEEEED2Ev;	.scl	2;	.type	32;	.endef
	.seh_proc	_ZNSaISt13_Rb_tree_nodeINSt7__cxx1112basic_stringIcSt11char_traitsIcESaIcEEEEED2Ev
_ZNSaISt13_Rb_tree_nodeINSt7__cxx1112basic_stringIcSt11char_traitsIcESaIcEEEEED2Ev:
.LFB2892:
	pushq	%rbp
	.seh_pushreg	%rbp
	movq	%rsp, %rbp
	.seh_setframe	%rbp, 0
	subq	$32, %rsp
	.seh_stackalloc	32
	.seh_endprologue
	movq	%rcx, 16(%rbp)
	movq	16(%rbp), %rcx
	call	_ZN9__gnu_cxx13new_allocatorISt13_Rb_tree_nodeINSt7__cxx1112basic_stringIcSt11char_traitsIcESaIcEEEEED2Ev
	nop
	addq	$32, %rsp
	popq	%rbp
	ret
	.seh_endproc
	.section	.text$_ZNSt8_Rb_treeINSt7__cxx1112basic_stringIcSt11char_traitsIcESaIcEEES5_St9_IdentityIS5_ESt4lessIS5_ESaIS5_EE8_M_eraseEPSt13_Rb_tree_nodeIS5_E,"x"
	.linkonce discard
	.align 2
	.globl	_ZNSt8_Rb_treeINSt7__cxx1112basic_stringIcSt11char_traitsIcESaIcEEES5_St9_IdentityIS5_ESt4lessIS5_ESaIS5_EE8_M_eraseEPSt13_Rb_tree_nodeIS5_E
	.def	_ZNSt8_Rb_treeINSt7__cxx1112basic_stringIcSt11char_traitsIcESaIcEEES5_St9_IdentityIS5_ESt4lessIS5_ESaIS5_EE8_M_eraseEPSt13_Rb_tree_nodeIS5_E;	.scl	2;	.type	32;	.endef
	.seh_proc	_ZNSt8_Rb_treeINSt7__cxx1112basic_stringIcSt11char_traitsIcESaIcEEES5_St9_IdentityIS5_ESt4lessIS5_ESaIS5_EE8_M_eraseEPSt13_Rb_tree_nodeIS5_E
_ZNSt8_Rb_treeINSt7__cxx1112basic_stringIcSt11char_traitsIcESaIcEEES5_St9_IdentityIS5_ESt4lessIS5_ESaIS5_EE8_M_eraseEPSt13_Rb_tree_nodeIS5_E:
.LFB2894:
	pushq	%rbp
	.seh_pushreg	%rbp
	movq	%rsp, %rbp
	.seh_setframe	%rbp, 0
	subq	$48, %rsp
	.seh_stackalloc	48
	.seh_endprologue
	movq	%rcx, 16(%rbp)
	movq	%rdx, 24(%rbp)
.L190:
	cmpq	$0, 24(%rbp)
	je	.L191
	movq	24(%rbp), %rax
	movq	%rax, %rcx
	call	_ZNSt8_Rb_treeINSt7__cxx1112basic_stringIcSt11char_traitsIcESaIcEEES5_St9_IdentityIS5_ESt4lessIS5_ESaIS5_EE8_S_rightEPSt18_Rb_tree_node_base
	movq	%rax, %rdx
	movq	16(%rbp), %rcx
	call	_ZNSt8_Rb_treeINSt7__cxx1112basic_stringIcSt11char_traitsIcESaIcEEES5_St9_IdentityIS5_ESt4lessIS5_ESaIS5_EE8_M_eraseEPSt13_Rb_tree_nodeIS5_E
	movq	24(%rbp), %rax
	movq	%rax, %rcx
	call	_ZNSt8_Rb_treeINSt7__cxx1112basic_stringIcSt11char_traitsIcESaIcEEES5_St9_IdentityIS5_ESt4lessIS5_ESaIS5_EE7_S_leftEPSt18_Rb_tree_node_base
	movq	%rax, -8(%rbp)
	movq	24(%rbp), %rax
	movq	%rax, %rdx
	movq	16(%rbp), %rcx
	call	_ZNSt8_Rb_treeINSt7__cxx1112basic_stringIcSt11char_traitsIcESaIcEEES5_St9_IdentityIS5_ESt4lessIS5_ESaIS5_EE12_M_drop_nodeEPSt13_Rb_tree_nodeIS5_E
	movq	-8(%rbp), %rax
	movq	%rax, 24(%rbp)
	jmp	.L190
.L191:
	nop
	addq	$48, %rsp
	popq	%rbp
	ret
	.seh_endproc
	.section	.text$_ZNSt8_Rb_treeINSt7__cxx1112basic_stringIcSt11char_traitsIcESaIcEEES5_St9_IdentityIS5_ESt4lessIS5_ESaIS5_EE8_M_beginEv,"x"
	.linkonce discard
	.align 2
	.globl	_ZNSt8_Rb_treeINSt7__cxx1112basic_stringIcSt11char_traitsIcESaIcEEES5_St9_IdentityIS5_ESt4lessIS5_ESaIS5_EE8_M_beginEv
	.def	_ZNSt8_Rb_treeINSt7__cxx1112basic_stringIcSt11char_traitsIcESaIcEEES5_St9_IdentityIS5_ESt4lessIS5_ESaIS5_EE8_M_beginEv;	.scl	2;	.type	32;	.endef
	.seh_proc	_ZNSt8_Rb_treeINSt7__cxx1112basic_stringIcSt11char_traitsIcESaIcEEES5_St9_IdentityIS5_ESt4lessIS5_ESaIS5_EE8_M_beginEv
_ZNSt8_Rb_treeINSt7__cxx1112basic_stringIcSt11char_traitsIcESaIcEEES5_St9_IdentityIS5_ESt4lessIS5_ESaIS5_EE8_M_beginEv:
.LFB2895:
	pushq	%rbp
	.seh_pushreg	%rbp
	movq	%rsp, %rbp
	.seh_setframe	%rbp, 0
	.seh_endprologue
	movq	%rcx, 16(%rbp)
	movq	16(%rbp), %rax
	movq	16(%rax), %rax
	popq	%rbp
	ret
	.seh_endproc
	.section	.text$_ZSt7forwardIRPSt13_Rb_tree_nodeINSt7__cxx1112basic_stringIcSt11char_traitsIcESaIcEEEEEOT_RNSt16remove_referenceISA_E4typeE,"x"
	.linkonce discard
	.globl	_ZSt7forwardIRPSt13_Rb_tree_nodeINSt7__cxx1112basic_stringIcSt11char_traitsIcESaIcEEEEEOT_RNSt16remove_referenceISA_E4typeE
	.def	_ZSt7forwardIRPSt13_Rb_tree_nodeINSt7__cxx1112basic_stringIcSt11char_traitsIcESaIcEEEEEOT_RNSt16remove_referenceISA_E4typeE;	.scl	2;	.type	32;	.endef
	.seh_proc	_ZSt7forwardIRPSt13_Rb_tree_nodeINSt7__cxx1112basic_stringIcSt11char_traitsIcESaIcEEEEEOT_RNSt16remove_referenceISA_E4typeE
_ZSt7forwardIRPSt13_Rb_tree_nodeINSt7__cxx1112basic_stringIcSt11char_traitsIcESaIcEEEEEOT_RNSt16remove_referenceISA_E4typeE:
.LFB2910:
	pushq	%rbp
	.seh_pushreg	%rbp
	movq	%rsp, %rbp
	.seh_setframe	%rbp, 0
	.seh_endprologue
	movq	%rcx, 16(%rbp)
	movq	16(%rbp), %rax
	popq	%rbp
	ret
	.seh_endproc
	.section	.text$_ZSt7forwardIRPSt18_Rb_tree_node_baseEOT_RNSt16remove_referenceIS3_E4typeE,"x"
	.linkonce discard
	.globl	_ZSt7forwardIRPSt18_Rb_tree_node_baseEOT_RNSt16remove_referenceIS3_E4typeE
	.def	_ZSt7forwardIRPSt18_Rb_tree_node_baseEOT_RNSt16remove_referenceIS3_E4typeE;	.scl	2;	.type	32;	.endef
	.seh_proc	_ZSt7forwardIRPSt18_Rb_tree_node_baseEOT_RNSt16remove_referenceIS3_E4typeE
_ZSt7forwardIRPSt18_Rb_tree_node_baseEOT_RNSt16remove_referenceIS3_E4typeE:
.LFB2911:
	pushq	%rbp
	.seh_pushreg	%rbp
	movq	%rsp, %rbp
	.seh_setframe	%rbp, 0
	.seh_endprologue
	movq	%rcx, 16(%rbp)
	movq	16(%rbp), %rax
	popq	%rbp
	ret
	.seh_endproc
	.section	.text$_ZNSt4pairIPSt18_Rb_tree_node_baseS1_EC1IRPSt13_Rb_tree_nodeINSt7__cxx1112basic_stringIcSt11char_traitsIcESaIcEEEERS1_Lb1EEEOT_OT0_,"x"
	.linkonce discard
	.align 2
	.globl	_ZNSt4pairIPSt18_Rb_tree_node_baseS1_EC1IRPSt13_Rb_tree_nodeINSt7__cxx1112basic_stringIcSt11char_traitsIcESaIcEEEERS1_Lb1EEEOT_OT0_
	.def	_ZNSt4pairIPSt18_Rb_tree_node_baseS1_EC1IRPSt13_Rb_tree_nodeINSt7__cxx1112basic_stringIcSt11char_traitsIcESaIcEEEERS1_Lb1EEEOT_OT0_;	.scl	2;	.type	32;	.endef
	.seh_proc	_ZNSt4pairIPSt18_Rb_tree_node_baseS1_EC1IRPSt13_Rb_tree_nodeINSt7__cxx1112basic_stringIcSt11char_traitsIcESaIcEEEERS1_Lb1EEEOT_OT0_
_ZNSt4pairIPSt18_Rb_tree_node_baseS1_EC1IRPSt13_Rb_tree_nodeINSt7__cxx1112basic_stringIcSt11char_traitsIcESaIcEEEERS1_Lb1EEEOT_OT0_:
.LFB2913:
	pushq	%rbp
	.seh_pushreg	%rbp
	movq	%rsp, %rbp
	.seh_setframe	%rbp, 0
	subq	$32, %rsp
	.seh_stackalloc	32
	.seh_endprologue
	movq	%rcx, 16(%rbp)
	movq	%rdx, 24(%rbp)
	movq	%r8, 32(%rbp)
	movq	24(%rbp), %rax
	movq	%rax, %rcx
	call	_ZSt7forwardIRPSt13_Rb_tree_nodeINSt7__cxx1112basic_stringIcSt11char_traitsIcESaIcEEEEEOT_RNSt16remove_referenceISA_E4typeE
	movq	(%rax), %rdx
	movq	16(%rbp), %rax
	movq	%rdx, (%rax)
	movq	32(%rbp), %rax
	movq	%rax, %rcx
	call	_ZSt7forwardIRPSt18_Rb_tree_node_baseEOT_RNSt16remove_referenceIS3_E4typeE
	movq	(%rax), %rdx
	movq	16(%rbp), %rax
	movq	%rdx, 8(%rax)
	nop
	addq	$32, %rsp
	popq	%rbp
	ret
	.seh_endproc
	.section	.text$_ZNSt4pairIPSt18_Rb_tree_node_baseS1_EC1IRS1_Lb1EEEOT_RKS1_,"x"
	.linkonce discard
	.align 2
	.globl	_ZNSt4pairIPSt18_Rb_tree_node_baseS1_EC1IRS1_Lb1EEEOT_RKS1_
	.def	_ZNSt4pairIPSt18_Rb_tree_node_baseS1_EC1IRS1_Lb1EEEOT_RKS1_;	.scl	2;	.type	32;	.endef
	.seh_proc	_ZNSt4pairIPSt18_Rb_tree_node_baseS1_EC1IRS1_Lb1EEEOT_RKS1_
_ZNSt4pairIPSt18_Rb_tree_node_baseS1_EC1IRS1_Lb1EEEOT_RKS1_:
.LFB2922:
	pushq	%rbp
	.seh_pushreg	%rbp
	movq	%rsp, %rbp
	.seh_setframe	%rbp, 0
	subq	$32, %rsp
	.seh_stackalloc	32
	.seh_endprologue
	movq	%rcx, 16(%rbp)
	movq	%rdx, 24(%rbp)
	movq	%r8, 32(%rbp)
	movq	24(%rbp), %rax
	movq	%rax, %rcx
	call	_ZSt7forwardIRPSt18_Rb_tree_node_baseEOT_RNSt16remove_referenceIS3_E4typeE
	movq	(%rax), %rdx
	movq	16(%rbp), %rax
	movq	%rdx, (%rax)
	movq	32(%rbp), %rax
	movq	(%rax), %rdx
	movq	16(%rbp), %rax
	movq	%rdx, 8(%rax)
	nop
	addq	$32, %rsp
	popq	%rbp
	ret
	.seh_endproc
	.section	.text$_ZNSt8_Rb_treeINSt7__cxx1112basic_stringIcSt11char_traitsIcESaIcEEES5_St9_IdentityIS5_ESt4lessIS5_ESaIS5_EE24_M_get_insert_unique_posERKS5_,"x"
	.linkonce discard
	.align 2
	.globl	_ZNSt8_Rb_treeINSt7__cxx1112basic_stringIcSt11char_traitsIcESaIcEEES5_St9_IdentityIS5_ESt4lessIS5_ESaIS5_EE24_M_get_insert_unique_posERKS5_
	.def	_ZNSt8_Rb_treeINSt7__cxx1112basic_stringIcSt11char_traitsIcESaIcEEES5_St9_IdentityIS5_ESt4lessIS5_ESaIS5_EE24_M_get_insert_unique_posERKS5_;	.scl	2;	.type	32;	.endef
	.seh_proc	_ZNSt8_Rb_treeINSt7__cxx1112basic_stringIcSt11char_traitsIcESaIcEEES5_St9_IdentityIS5_ESt4lessIS5_ESaIS5_EE24_M_get_insert_unique_posERKS5_
_ZNSt8_Rb_treeINSt7__cxx1112basic_stringIcSt11char_traitsIcESaIcEEES5_St9_IdentityIS5_ESt4lessIS5_ESaIS5_EE24_M_get_insert_unique_posERKS5_:
.LFB2902:
	pushq	%rbp
	.seh_pushreg	%rbp
	movq	%rsp, %rbp
	.seh_setframe	%rbp, 0
	subq	$96, %rsp
	.seh_stackalloc	96
	.seh_endprologue
	movq	%rcx, 16(%rbp)
	movq	%rdx, 24(%rbp)
	movq	%r8, 32(%rbp)
	movq	24(%rbp), %rax
	movq	%rax, %rcx
	call	_ZNSt8_Rb_treeINSt7__cxx1112basic_stringIcSt11char_traitsIcESaIcEEES5_St9_IdentityIS5_ESt4lessIS5_ESaIS5_EE8_M_beginEv
	movq	%rax, -40(%rbp)
	movq	24(%rbp), %rax
	movq	%rax, %rcx
	call	_ZNSt8_Rb_treeINSt7__cxx1112basic_stringIcSt11char_traitsIcESaIcEEES5_St9_IdentityIS5_ESt4lessIS5_ESaIS5_EE6_M_endEv
	movq	%rax, -48(%rbp)
	movb	$1, -1(%rbp)
.L204:
	movq	-40(%rbp), %rax
	testq	%rax, %rax
	je	.L201
	movq	-40(%rbp), %rax
	movq	%rax, -48(%rbp)
	movq	-40(%rbp), %rax
	movq	%rax, %rcx
	call	_ZNSt8_Rb_treeINSt7__cxx1112basic_stringIcSt11char_traitsIcESaIcEEES5_St9_IdentityIS5_ESt4lessIS5_ESaIS5_EE6_S_keyEPKSt13_Rb_tree_nodeIS5_E
	movq	%rax, %rcx
	movq	24(%rbp), %rax
	movq	32(%rbp), %rdx
	movq	%rcx, %r8
	movq	%rax, %rcx
	call	_ZNKSt4lessINSt7__cxx1112basic_stringIcSt11char_traitsIcESaIcEEEEclERKS5_S8_
	movb	%al, -1(%rbp)
	cmpb	$0, -1(%rbp)
	je	.L202
	movq	-40(%rbp), %rax
	movq	%rax, %rcx
	call	_ZNSt8_Rb_treeINSt7__cxx1112basic_stringIcSt11char_traitsIcESaIcEEES5_St9_IdentityIS5_ESt4lessIS5_ESaIS5_EE7_S_leftEPSt18_Rb_tree_node_base
	jmp	.L203
.L202:
	movq	-40(%rbp), %rax
	movq	%rax, %rcx
	call	_ZNSt8_Rb_treeINSt7__cxx1112basic_stringIcSt11char_traitsIcESaIcEEES5_St9_IdentityIS5_ESt4lessIS5_ESaIS5_EE8_S_rightEPSt18_Rb_tree_node_base
.L203:
	movq	%rax, -40(%rbp)
	jmp	.L204
.L201:
	movq	-48(%rbp), %rdx
	leaq	-64(%rbp), %rax
	movq	%rax, %rcx
	call	_ZNSt17_Rb_tree_iteratorINSt7__cxx1112basic_stringIcSt11char_traitsIcESaIcEEEEC1EPSt18_Rb_tree_node_base
	cmpb	$0, -1(%rbp)
	je	.L205
	movq	24(%rbp), %rax
	movq	%rax, %rcx
	call	_ZNSt8_Rb_treeINSt7__cxx1112basic_stringIcSt11char_traitsIcESaIcEEES5_St9_IdentityIS5_ESt4lessIS5_ESaIS5_EE5beginEv
	movq	%rax, -32(%rbp)
	leaq	-32(%rbp), %rdx
	leaq	-64(%rbp), %rax
	movq	%rax, %rcx
	call	_ZNKSt17_Rb_tree_iteratorINSt7__cxx1112basic_stringIcSt11char_traitsIcESaIcEEEEeqERKS6_
	testb	%al, %al
	je	.L206
	leaq	-48(%rbp), %rdx
	leaq	-40(%rbp), %rax
	movq	%rdx, %r8
	movq	%rax, %rdx
	movq	16(%rbp), %rcx
	call	_ZNSt4pairIPSt18_Rb_tree_node_baseS1_EC1IRPSt13_Rb_tree_nodeINSt7__cxx1112basic_stringIcSt11char_traitsIcESaIcEEEERS1_Lb1EEEOT_OT0_
	jmp	.L200
.L206:
	leaq	-64(%rbp), %rax
	movq	%rax, %rcx
	call	_ZNSt17_Rb_tree_iteratorINSt7__cxx1112basic_stringIcSt11char_traitsIcESaIcEEEEmmEv
.L205:
	movq	-64(%rbp), %rax
	movq	%rax, %rcx
	call	_ZNSt8_Rb_treeINSt7__cxx1112basic_stringIcSt11char_traitsIcESaIcEEES5_St9_IdentityIS5_ESt4lessIS5_ESaIS5_EE6_S_keyEPKSt18_Rb_tree_node_base
	movq	%rax, %rcx
	movq	24(%rbp), %rax
	movq	32(%rbp), %rdx
	movq	%rdx, %r8
	movq	%rcx, %rdx
	movq	%rax, %rcx
	call	_ZNKSt4lessINSt7__cxx1112basic_stringIcSt11char_traitsIcESaIcEEEEclERKS5_S8_
	testb	%al, %al
	je	.L208
	leaq	-48(%rbp), %rdx
	leaq	-40(%rbp), %rax
	movq	%rdx, %r8
	movq	%rax, %rdx
	movq	16(%rbp), %rcx
	call	_ZNSt4pairIPSt18_Rb_tree_node_baseS1_EC1IRPSt13_Rb_tree_nodeINSt7__cxx1112basic_stringIcSt11char_traitsIcESaIcEEEERS1_Lb1EEEOT_OT0_
	jmp	.L200
.L208:
	movq	$0, -16(%rbp)
	leaq	-16(%rbp), %rdx
	leaq	-64(%rbp), %rax
	movq	%rdx, %r8
	movq	%rax, %rdx
	movq	16(%rbp), %rcx
	call	_ZNSt4pairIPSt18_Rb_tree_node_baseS1_EC1IRS1_Lb1EEEOT_RKS1_
.L200:
	movq	16(%rbp), %rax
	addq	$96, %rsp
	popq	%rbp
	ret
	.seh_endproc
	.section	.text$_ZNKSt9_IdentityINSt7__cxx1112basic_stringIcSt11char_traitsIcESaIcEEEEclERKS5_,"x"
	.linkonce discard
	.align 2
	.globl	_ZNKSt9_IdentityINSt7__cxx1112basic_stringIcSt11char_traitsIcESaIcEEEEclERKS5_
	.def	_ZNKSt9_IdentityINSt7__cxx1112basic_stringIcSt11char_traitsIcESaIcEEEEclERKS5_;	.scl	2;	.type	32;	.endef
	.seh_proc	_ZNKSt9_IdentityINSt7__cxx1112basic_stringIcSt11char_traitsIcESaIcEEEEclERKS5_
_ZNKSt9_IdentityINSt7__cxx1112basic_stringIcSt11char_traitsIcESaIcEEEEclERKS5_:
.LFB2923:
	pushq	%rbp
	.seh_pushreg	%rbp
	movq	%rsp, %rbp
	.seh_setframe	%rbp, 0
	.seh_endprologue
	movq	%rcx, 16(%rbp)
	movq	%rdx, 24(%rbp)
	movq	24(%rbp), %rax
	popq	%rbp
	ret
	.seh_endproc
	.section	.text$_ZNSt8_Rb_treeINSt7__cxx1112basic_stringIcSt11char_traitsIcESaIcEEES5_St9_IdentityIS5_ESt4lessIS5_ESaIS5_EE11_Alloc_nodeC1ERSB_,"x"
	.linkonce discard
	.align 2
	.globl	_ZNSt8_Rb_treeINSt7__cxx1112basic_stringIcSt11char_traitsIcESaIcEEES5_St9_IdentityIS5_ESt4lessIS5_ESaIS5_EE11_Alloc_nodeC1ERSB_
	.def	_ZNSt8_Rb_treeINSt7__cxx1112basic_stringIcSt11char_traitsIcESaIcEEES5_St9_IdentityIS5_ESt4lessIS5_ESaIS5_EE11_Alloc_nodeC1ERSB_;	.scl	2;	.type	32;	.endef
	.seh_proc	_ZNSt8_Rb_treeINSt7__cxx1112basic_stringIcSt11char_traitsIcESaIcEEES5_St9_IdentityIS5_ESt4lessIS5_ESaIS5_EE11_Alloc_nodeC1ERSB_
_ZNSt8_Rb_treeINSt7__cxx1112basic_stringIcSt11char_traitsIcESaIcEEES5_St9_IdentityIS5_ESt4lessIS5_ESaIS5_EE11_Alloc_nodeC1ERSB_:
.LFB2926:
	pushq	%rbp
	.seh_pushreg	%rbp
	movq	%rsp, %rbp
	.seh_setframe	%rbp, 0
	.seh_endprologue
	movq	%rcx, 16(%rbp)
	movq	%rdx, 24(%rbp)
	movq	16(%rbp), %rax
	movq	24(%rbp), %rdx
	movq	%rdx, (%rax)
	nop
	popq	%rbp
	ret
	.seh_endproc
	.section	.text$_ZNSt8_Rb_treeINSt7__cxx1112basic_stringIcSt11char_traitsIcESaIcEEES5_St9_IdentityIS5_ESt4lessIS5_ESaIS5_EE10_M_insert_IRKS5_NSB_11_Alloc_nodeEEESt17_Rb_tree_iteratorIS5_EPSt18_Rb_tree_node_baseSJ_OT_RT0_,"x"
	.linkonce discard
	.align 2
	.globl	_ZNSt8_Rb_treeINSt7__cxx1112basic_stringIcSt11char_traitsIcESaIcEEES5_St9_IdentityIS5_ESt4lessIS5_ESaIS5_EE10_M_insert_IRKS5_NSB_11_Alloc_nodeEEESt17_Rb_tree_iteratorIS5_EPSt18_Rb_tree_node_baseSJ_OT_RT0_
	.def	_ZNSt8_Rb_treeINSt7__cxx1112basic_stringIcSt11char_traitsIcESaIcEEES5_St9_IdentityIS5_ESt4lessIS5_ESaIS5_EE10_M_insert_IRKS5_NSB_11_Alloc_nodeEEESt17_Rb_tree_iteratorIS5_EPSt18_Rb_tree_node_baseSJ_OT_RT0_;	.scl	2;	.type	32;	.endef
	.seh_proc	_ZNSt8_Rb_treeINSt7__cxx1112basic_stringIcSt11char_traitsIcESaIcEEES5_St9_IdentityIS5_ESt4lessIS5_ESaIS5_EE10_M_insert_IRKS5_NSB_11_Alloc_nodeEEESt17_Rb_tree_iteratorIS5_EPSt18_Rb_tree_node_baseSJ_OT_RT0_
_ZNSt8_Rb_treeINSt7__cxx1112basic_stringIcSt11char_traitsIcESaIcEEES5_St9_IdentityIS5_ESt4lessIS5_ESaIS5_EE10_M_insert_IRKS5_NSB_11_Alloc_nodeEEESt17_Rb_tree_iteratorIS5_EPSt18_Rb_tree_node_baseSJ_OT_RT0_:
.LFB2927:
	pushq	%rbp
	.seh_pushreg	%rbp
	pushq	%rsi
	.seh_pushreg	%rsi
	pushq	%rbx
	.seh_pushreg	%rbx
	movq	%rsp, %rbp
	.seh_setframe	%rbp, 0
	subq	$80, %rsp
	.seh_stackalloc	80
	.seh_endprologue
	movq	%rcx, 32(%rbp)
	movq	%rdx, 40(%rbp)
	movq	%r8, 48(%rbp)
	movq	%r9, 56(%rbp)
	movl	$0, %ebx
	cmpq	$0, 40(%rbp)
	jne	.L214
	movq	32(%rbp), %rcx
	call	_ZNSt8_Rb_treeINSt7__cxx1112basic_stringIcSt11char_traitsIcESaIcEEES5_St9_IdentityIS5_ESt4lessIS5_ESaIS5_EE6_M_endEv
	cmpq	48(%rbp), %rax
	je	.L214
	movq	48(%rbp), %rax
	movq	%rax, %rcx
.LEHB29:
	call	_ZNSt8_Rb_treeINSt7__cxx1112basic_stringIcSt11char_traitsIcESaIcEEES5_St9_IdentityIS5_ESt4lessIS5_ESaIS5_EE6_S_keyEPKSt18_Rb_tree_node_base
.LEHE29:
	movq	%rax, %rsi
	movl	$1, %ebx
	movq	56(%rbp), %rdx
	leaq	-33(%rbp), %rax
	movq	%rax, %rcx
	call	_ZNKSt9_IdentityINSt7__cxx1112basic_stringIcSt11char_traitsIcESaIcEEEEclERKS5_
	movq	%rax, %rdx
	movq	32(%rbp), %rax
	movq	%rsi, %r8
	movq	%rax, %rcx
	call	_ZNKSt4lessINSt7__cxx1112basic_stringIcSt11char_traitsIcESaIcEEEEclERKS5_S8_
	testb	%al, %al
	je	.L215
.L214:
	movl	$1, %eax
	jmp	.L216
.L215:
	movl	$0, %eax
.L216:
	movb	%al, -1(%rbp)
	testb	%bl, %bl
	nop
	movq	56(%rbp), %rax
	movq	%rax, %rcx
	call	_ZSt7forwardIRKNSt7__cxx1112basic_stringIcSt11char_traitsIcESaIcEEEEOT_RNSt16remove_referenceIS8_E4typeE
	movq	%rax, %rdx
	movq	64(%rbp), %rax
	movq	%rax, %rcx
.LEHB30:
	call	_ZNKSt8_Rb_treeINSt7__cxx1112basic_stringIcSt11char_traitsIcESaIcEEES5_St9_IdentityIS5_ESt4lessIS5_ESaIS5_EE11_Alloc_nodeclIRKS5_EEPSt13_Rb_tree_nodeIS5_EOT_
	movq	%rax, -16(%rbp)
	movq	32(%rbp), %rax
	leaq	8(%rax), %r8
	movzbl	-1(%rbp), %eax
	movq	48(%rbp), %rcx
	movq	-16(%rbp), %rdx
	movq	%r8, %r9
	movq	%rcx, %r8
	movl	%eax, %ecx
	call	_ZSt29_Rb_tree_insert_and_rebalancebPSt18_Rb_tree_node_baseS0_RS_
	movq	32(%rbp), %rax
	movq	40(%rax), %rax
	leaq	1(%rax), %rdx
	movq	32(%rbp), %rax
	movq	%rdx, 40(%rax)
	movq	-16(%rbp), %rdx
	leaq	-32(%rbp), %rax
	movq	%rax, %rcx
	call	_ZNSt17_Rb_tree_iteratorINSt7__cxx1112basic_stringIcSt11char_traitsIcESaIcEEEEC1EPSt18_Rb_tree_node_base
	movq	-32(%rbp), %rax
	jmp	.L222
.L221:
	testb	%bl, %bl
	nop
	movq	%rax, %rcx
	call	_Unwind_Resume
.LEHE30:
.L222:
	addq	$80, %rsp
	popq	%rbx
	popq	%rsi
	popq	%rbp
	ret
	.seh_handler	__gxx_personality_seh0, @unwind, @except
	.seh_handlerdata
.LLSDA2927:
	.byte	0xff
	.byte	0xff
	.byte	0x1
	.uleb128 .LLSDACSE2927-.LLSDACSB2927
.LLSDACSB2927:
	.uleb128 .LEHB29-.LFB2927
	.uleb128 .LEHE29-.LEHB29
	.uleb128 .L221-.LFB2927
	.uleb128 0
	.uleb128 .LEHB30-.LFB2927
	.uleb128 .LEHE30-.LEHB30
	.uleb128 0
	.uleb128 0
.LLSDACSE2927:
	.section	.text$_ZNSt8_Rb_treeINSt7__cxx1112basic_stringIcSt11char_traitsIcESaIcEEES5_St9_IdentityIS5_ESt4lessIS5_ESaIS5_EE10_M_insert_IRKS5_NSB_11_Alloc_nodeEEESt17_Rb_tree_iteratorIS5_EPSt18_Rb_tree_node_baseSJ_OT_RT0_,"x"
	.linkonce discard
	.seh_endproc
	.section	.text$_ZNSt17_Rb_tree_iteratorINSt7__cxx1112basic_stringIcSt11char_traitsIcESaIcEEEEC1EPSt18_Rb_tree_node_base,"x"
	.linkonce discard
	.align 2
	.globl	_ZNSt17_Rb_tree_iteratorINSt7__cxx1112basic_stringIcSt11char_traitsIcESaIcEEEEC1EPSt18_Rb_tree_node_base
	.def	_ZNSt17_Rb_tree_iteratorINSt7__cxx1112basic_stringIcSt11char_traitsIcESaIcEEEEC1EPSt18_Rb_tree_node_base;	.scl	2;	.type	32;	.endef
	.seh_proc	_ZNSt17_Rb_tree_iteratorINSt7__cxx1112basic_stringIcSt11char_traitsIcESaIcEEEEC1EPSt18_Rb_tree_node_base
_ZNSt17_Rb_tree_iteratorINSt7__cxx1112basic_stringIcSt11char_traitsIcESaIcEEEEC1EPSt18_Rb_tree_node_base:
.LFB2930:
	pushq	%rbp
	.seh_pushreg	%rbp
	movq	%rsp, %rbp
	.seh_setframe	%rbp, 0
	.seh_endprologue
	movq	%rcx, 16(%rbp)
	movq	%rdx, 24(%rbp)
	movq	16(%rbp), %rax
	movq	24(%rbp), %rdx
	movq	%rdx, (%rax)
	nop
	popq	%rbp
	ret
	.seh_endproc
	.section	.text$_ZNSt8_Rb_treeINSt7__cxx1112basic_stringIcSt11char_traitsIcESaIcEEES5_St9_IdentityIS5_ESt4lessIS5_ESaIS5_EE6_M_endEv,"x"
	.linkonce discard
	.align 2
	.globl	_ZNSt8_Rb_treeINSt7__cxx1112basic_stringIcSt11char_traitsIcESaIcEEES5_St9_IdentityIS5_ESt4lessIS5_ESaIS5_EE6_M_endEv
	.def	_ZNSt8_Rb_treeINSt7__cxx1112basic_stringIcSt11char_traitsIcESaIcEEES5_St9_IdentityIS5_ESt4lessIS5_ESaIS5_EE6_M_endEv;	.scl	2;	.type	32;	.endef
	.seh_proc	_ZNSt8_Rb_treeINSt7__cxx1112basic_stringIcSt11char_traitsIcESaIcEEES5_St9_IdentityIS5_ESt4lessIS5_ESaIS5_EE6_M_endEv
_ZNSt8_Rb_treeINSt7__cxx1112basic_stringIcSt11char_traitsIcESaIcEEES5_St9_IdentityIS5_ESt4lessIS5_ESaIS5_EE6_M_endEv:
.LFB2931:
	pushq	%rbp
	.seh_pushreg	%rbp
	movq	%rsp, %rbp
	.seh_setframe	%rbp, 0
	.seh_endprologue
	movq	%rcx, 16(%rbp)
	movq	16(%rbp), %rax
	addq	$8, %rax
	popq	%rbp
	ret
	.seh_endproc
	.section	.text$_ZNSt8_Rb_treeINSt7__cxx1112basic_stringIcSt11char_traitsIcESaIcEEES5_St9_IdentityIS5_ESt4lessIS5_ESaIS5_EE14_M_lower_boundEPSt13_Rb_tree_nodeIS5_EPSt18_Rb_tree_node_baseRKS5_,"x"
	.linkonce discard
	.align 2
	.globl	_ZNSt8_Rb_treeINSt7__cxx1112basic_stringIcSt11char_traitsIcESaIcEEES5_St9_IdentityIS5_ESt4lessIS5_ESaIS5_EE14_M_lower_boundEPSt13_Rb_tree_nodeIS5_EPSt18_Rb_tree_node_baseRKS5_
	.def	_ZNSt8_Rb_treeINSt7__cxx1112basic_stringIcSt11char_traitsIcESaIcEEES5_St9_IdentityIS5_ESt4lessIS5_ESaIS5_EE14_M_lower_boundEPSt13_Rb_tree_nodeIS5_EPSt18_Rb_tree_node_baseRKS5_;	.scl	2;	.type	32;	.endef
	.seh_proc	_ZNSt8_Rb_treeINSt7__cxx1112basic_stringIcSt11char_traitsIcESaIcEEES5_St9_IdentityIS5_ESt4lessIS5_ESaIS5_EE14_M_lower_boundEPSt13_Rb_tree_nodeIS5_EPSt18_Rb_tree_node_baseRKS5_
_ZNSt8_Rb_treeINSt7__cxx1112basic_stringIcSt11char_traitsIcESaIcEEES5_St9_IdentityIS5_ESt4lessIS5_ESaIS5_EE14_M_lower_boundEPSt13_Rb_tree_nodeIS5_EPSt18_Rb_tree_node_baseRKS5_:
.LFB2932:
	pushq	%rbp
	.seh_pushreg	%rbp
	movq	%rsp, %rbp
	.seh_setframe	%rbp, 0
	subq	$48, %rsp
	.seh_stackalloc	48
	.seh_endprologue
	movq	%rcx, 16(%rbp)
	movq	%rdx, 24(%rbp)
	movq	%r8, 32(%rbp)
	movq	%r9, 40(%rbp)
.L230:
	cmpq	$0, 24(%rbp)
	je	.L227
	movq	24(%rbp), %rax
	movq	%rax, %rcx
	call	_ZNSt8_Rb_treeINSt7__cxx1112basic_stringIcSt11char_traitsIcESaIcEEES5_St9_IdentityIS5_ESt4lessIS5_ESaIS5_EE6_S_keyEPKSt13_Rb_tree_nodeIS5_E
	movq	%rax, %rcx
	movq	16(%rbp), %rax
	movq	40(%rbp), %rdx
	movq	%rdx, %r8
	movq	%rcx, %rdx
	movq	%rax, %rcx
	call	_ZNKSt4lessINSt7__cxx1112basic_stringIcSt11char_traitsIcESaIcEEEEclERKS5_S8_
	xorl	$1, %eax
	testb	%al, %al
	je	.L228
	movq	24(%rbp), %rax
	movq	%rax, 32(%rbp)
	movq	24(%rbp), %rax
	movq	%rax, %rcx
	call	_ZNSt8_Rb_treeINSt7__cxx1112basic_stringIcSt11char_traitsIcESaIcEEES5_St9_IdentityIS5_ESt4lessIS5_ESaIS5_EE7_S_leftEPSt18_Rb_tree_node_base
	movq	%rax, 24(%rbp)
	jmp	.L230
.L228:
	movq	24(%rbp), %rax
	movq	%rax, %rcx
	call	_ZNSt8_Rb_treeINSt7__cxx1112basic_stringIcSt11char_traitsIcESaIcEEES5_St9_IdentityIS5_ESt4lessIS5_ESaIS5_EE8_S_rightEPSt18_Rb_tree_node_base
	movq	%rax, 24(%rbp)
	jmp	.L230
.L227:
	movq	32(%rbp), %rdx
	leaq	-16(%rbp), %rax
	movq	%rax, %rcx
	call	_ZNSt17_Rb_tree_iteratorINSt7__cxx1112basic_stringIcSt11char_traitsIcESaIcEEEEC1EPSt18_Rb_tree_node_base
	movq	-16(%rbp), %rax
	addq	$48, %rsp
	popq	%rbp
	ret
	.seh_endproc
	.section	.text$_ZNSt8_Rb_treeINSt7__cxx1112basic_stringIcSt11char_traitsIcESaIcEEES5_St9_IdentityIS5_ESt4lessIS5_ESaIS5_EE3endEv,"x"
	.linkonce discard
	.align 2
	.globl	_ZNSt8_Rb_treeINSt7__cxx1112basic_stringIcSt11char_traitsIcESaIcEEES5_St9_IdentityIS5_ESt4lessIS5_ESaIS5_EE3endEv
	.def	_ZNSt8_Rb_treeINSt7__cxx1112basic_stringIcSt11char_traitsIcESaIcEEES5_St9_IdentityIS5_ESt4lessIS5_ESaIS5_EE3endEv;	.scl	2;	.type	32;	.endef
	.seh_proc	_ZNSt8_Rb_treeINSt7__cxx1112basic_stringIcSt11char_traitsIcESaIcEEES5_St9_IdentityIS5_ESt4lessIS5_ESaIS5_EE3endEv
_ZNSt8_Rb_treeINSt7__cxx1112basic_stringIcSt11char_traitsIcESaIcEEES5_St9_IdentityIS5_ESt4lessIS5_ESaIS5_EE3endEv:
.LFB2933:
	pushq	%rbp
	.seh_pushreg	%rbp
	movq	%rsp, %rbp
	.seh_setframe	%rbp, 0
	subq	$48, %rsp
	.seh_stackalloc	48
	.seh_endprologue
	movq	%rcx, 16(%rbp)
	movq	16(%rbp), %rax
	leaq	8(%rax), %rdx
	leaq	-16(%rbp), %rax
	movq	%rax, %rcx
	call	_ZNSt17_Rb_tree_iteratorINSt7__cxx1112basic_stringIcSt11char_traitsIcESaIcEEEEC1EPSt18_Rb_tree_node_base
	movq	-16(%rbp), %rax
	addq	$48, %rsp
	popq	%rbp
	ret
	.seh_endproc
	.section	.text$_ZNKSt17_Rb_tree_iteratorINSt7__cxx1112basic_stringIcSt11char_traitsIcESaIcEEEEeqERKS6_,"x"
	.linkonce discard
	.align 2
	.globl	_ZNKSt17_Rb_tree_iteratorINSt7__cxx1112basic_stringIcSt11char_traitsIcESaIcEEEEeqERKS6_
	.def	_ZNKSt17_Rb_tree_iteratorINSt7__cxx1112basic_stringIcSt11char_traitsIcESaIcEEEEeqERKS6_;	.scl	2;	.type	32;	.endef
	.seh_proc	_ZNKSt17_Rb_tree_iteratorINSt7__cxx1112basic_stringIcSt11char_traitsIcESaIcEEEEeqERKS6_
_ZNKSt17_Rb_tree_iteratorINSt7__cxx1112basic_stringIcSt11char_traitsIcESaIcEEEEeqERKS6_:
.LFB2934:
	pushq	%rbp
	.seh_pushreg	%rbp
	movq	%rsp, %rbp
	.seh_setframe	%rbp, 0
	.seh_endprologue
	movq	%rcx, 16(%rbp)
	movq	%rdx, 24(%rbp)
	movq	16(%rbp), %rax
	movq	(%rax), %rdx
	movq	24(%rbp), %rax
	movq	(%rax), %rax
	cmpq	%rax, %rdx
	sete	%al
	popq	%rbp
	ret
	.seh_endproc
	.section	.text$_ZNSt8_Rb_treeINSt7__cxx1112basic_stringIcSt11char_traitsIcESaIcEEES5_St9_IdentityIS5_ESt4lessIS5_ESaIS5_EE6_S_keyEPKSt18_Rb_tree_node_base,"x"
	.linkonce discard
	.globl	_ZNSt8_Rb_treeINSt7__cxx1112basic_stringIcSt11char_traitsIcESaIcEEES5_St9_IdentityIS5_ESt4lessIS5_ESaIS5_EE6_S_keyEPKSt18_Rb_tree_node_base
	.def	_ZNSt8_Rb_treeINSt7__cxx1112basic_stringIcSt11char_traitsIcESaIcEEES5_St9_IdentityIS5_ESt4lessIS5_ESaIS5_EE6_S_keyEPKSt18_Rb_tree_node_base;	.scl	2;	.type	32;	.endef
	.seh_proc	_ZNSt8_Rb_treeINSt7__cxx1112basic_stringIcSt11char_traitsIcESaIcEEES5_St9_IdentityIS5_ESt4lessIS5_ESaIS5_EE6_S_keyEPKSt18_Rb_tree_node_base
_ZNSt8_Rb_treeINSt7__cxx1112basic_stringIcSt11char_traitsIcESaIcEEES5_St9_IdentityIS5_ESt4lessIS5_ESaIS5_EE6_S_keyEPKSt18_Rb_tree_node_base:
.LFB2935:
	pushq	%rbp
	.seh_pushreg	%rbp
	movq	%rsp, %rbp
	.seh_setframe	%rbp, 0
	subq	$48, %rsp
	.seh_stackalloc	48
	.seh_endprologue
	movq	%rcx, 16(%rbp)
	movq	16(%rbp), %rcx
	call	_ZNSt8_Rb_treeINSt7__cxx1112basic_stringIcSt11char_traitsIcESaIcEEES5_St9_IdentityIS5_ESt4lessIS5_ESaIS5_EE8_S_valueEPKSt18_Rb_tree_node_base
	movq	%rax, %rdx
	leaq	-1(%rbp), %rax
	movq	%rax, %rcx
	call	_ZNKSt9_IdentityINSt7__cxx1112basic_stringIcSt11char_traitsIcESaIcEEEEclERKS5_
	addq	$48, %rsp
	popq	%rbp
	ret
	.seh_endproc
	.section	.text$_ZNSt23_Rb_tree_const_iteratorINSt7__cxx1112basic_stringIcSt11char_traitsIcESaIcEEEEC1EPKSt18_Rb_tree_node_base,"x"
	.linkonce discard
	.align 2
	.globl	_ZNSt23_Rb_tree_const_iteratorINSt7__cxx1112basic_stringIcSt11char_traitsIcESaIcEEEEC1EPKSt18_Rb_tree_node_base
	.def	_ZNSt23_Rb_tree_const_iteratorINSt7__cxx1112basic_stringIcSt11char_traitsIcESaIcEEEEC1EPKSt18_Rb_tree_node_base;	.scl	2;	.type	32;	.endef
	.seh_proc	_ZNSt23_Rb_tree_const_iteratorINSt7__cxx1112basic_stringIcSt11char_traitsIcESaIcEEEEC1EPKSt18_Rb_tree_node_base
_ZNSt23_Rb_tree_const_iteratorINSt7__cxx1112basic_stringIcSt11char_traitsIcESaIcEEEEC1EPKSt18_Rb_tree_node_base:
.LFB2938:
	pushq	%rbp
	.seh_pushreg	%rbp
	movq	%rsp, %rbp
	.seh_setframe	%rbp, 0
	.seh_endprologue
	movq	%rcx, 16(%rbp)
	movq	%rdx, 24(%rbp)
	movq	16(%rbp), %rax
	movq	24(%rbp), %rdx
	movq	%rdx, (%rax)
	nop
	popq	%rbp
	ret
	.seh_endproc
	.section	.text$_ZSt16__introsort_loopIP13Keywords_ratexN9__gnu_cxx5__ops15_Iter_less_iterEEvT_S5_T0_T1_,"x"
	.linkonce discard
	.globl	_ZSt16__introsort_loopIP13Keywords_ratexN9__gnu_cxx5__ops15_Iter_less_iterEEvT_S5_T0_T1_
	.def	_ZSt16__introsort_loopIP13Keywords_ratexN9__gnu_cxx5__ops15_Iter_less_iterEEvT_S5_T0_T1_;	.scl	2;	.type	32;	.endef
	.seh_proc	_ZSt16__introsort_loopIP13Keywords_ratexN9__gnu_cxx5__ops15_Iter_less_iterEEvT_S5_T0_T1_
_ZSt16__introsort_loopIP13Keywords_ratexN9__gnu_cxx5__ops15_Iter_less_iterEEvT_S5_T0_T1_:
.LFB2939:
	pushq	%rbp
	.seh_pushreg	%rbp
	pushq	%rdi
	.seh_pushreg	%rdi
	pushq	%rsi
	.seh_pushreg	%rsi
	pushq	%rbx
	.seh_pushreg	%rbx
	subq	$56, %rsp
	.seh_stackalloc	56
	leaq	128(%rsp), %rbp
	.seh_setframe	%rbp, 128
	.seh_endprologue
	movq	%rcx, -32(%rbp)
	movq	%rdx, -24(%rbp)
	movq	%r8, -16(%rbp)
	movb	%r9b, -8(%rbp)
.L242:
	movq	-24(%rbp), %rdx
	movq	-32(%rbp), %rax
	subq	%rax, %rdx
	movq	%rdx, %rax
	cmpq	$271, %rax
	jle	.L239
	cmpq	$0, -16(%rbp)
	jne	.L241
	movq	-24(%rbp), %rdx
	movq	-24(%rbp), %rax
	movl	%edi, %r9d
	movq	%rdx, %r8
	movq	%rax, %rdx
	movq	-32(%rbp), %rcx
	call	_ZSt14__partial_sortIP13Keywords_rateN9__gnu_cxx5__ops15_Iter_less_iterEEvT_S5_S5_T0_
	jmp	.L239
.L241:
	subq	$1, -16(%rbp)
	movq	-24(%rbp), %rax
	movl	%esi, %r8d
	movq	%rax, %rdx
	movq	-32(%rbp), %rcx
	call	_ZSt27__unguarded_partition_pivotIP13Keywords_rateN9__gnu_cxx5__ops15_Iter_less_iterEET_S5_S5_T0_
	movq	%rax, -88(%rbp)
	movq	-16(%rbp), %rcx
	movq	-24(%rbp), %rdx
	movq	-88(%rbp), %rax
	movl	%ebx, %r9d
	movq	%rcx, %r8
	movq	%rax, %rcx
	call	_ZSt16__introsort_loopIP13Keywords_ratexN9__gnu_cxx5__ops15_Iter_less_iterEEvT_S5_T0_T1_
	movq	-88(%rbp), %rax
	movq	%rax, -24(%rbp)
	jmp	.L242
.L239:
	addq	$56, %rsp
	popq	%rbx
	popq	%rsi
	popq	%rdi
	popq	%rbp
	ret
	.seh_endproc
	.section	.text$_ZSt22__final_insertion_sortIP13Keywords_rateN9__gnu_cxx5__ops15_Iter_less_iterEEvT_S5_T0_,"x"
	.linkonce discard
	.globl	_ZSt22__final_insertion_sortIP13Keywords_rateN9__gnu_cxx5__ops15_Iter_less_iterEEvT_S5_T0_
	.def	_ZSt22__final_insertion_sortIP13Keywords_rateN9__gnu_cxx5__ops15_Iter_less_iterEEvT_S5_T0_;	.scl	2;	.type	32;	.endef
	.seh_proc	_ZSt22__final_insertion_sortIP13Keywords_rateN9__gnu_cxx5__ops15_Iter_less_iterEEvT_S5_T0_
_ZSt22__final_insertion_sortIP13Keywords_rateN9__gnu_cxx5__ops15_Iter_less_iterEEvT_S5_T0_:
.LFB2940:
	pushq	%rbp
	.seh_pushreg	%rbp
	pushq	%rbx
	.seh_pushreg	%rbx
	subq	$40, %rsp
	.seh_stackalloc	40
	leaq	128(%rsp), %rbp
	.seh_setframe	%rbp, 128
	.seh_endprologue
	movq	%rcx, -64(%rbp)
	movq	%rdx, -56(%rbp)
	movb	%r8b, -48(%rbp)
	movq	-56(%rbp), %rdx
	movq	-64(%rbp), %rax
	subq	%rax, %rdx
	movq	%rdx, %rax
	cmpq	$271, %rax
	jle	.L244
	movq	-64(%rbp), %rax
	addq	$256, %rax
	movl	%r10d, %r8d
	movq	%rax, %rdx
	movq	-64(%rbp), %rcx
	call	_ZSt16__insertion_sortIP13Keywords_rateN9__gnu_cxx5__ops15_Iter_less_iterEEvT_S5_T0_
	movq	-64(%rbp), %rax
	leaq	256(%rax), %rcx
	movq	-56(%rbp), %rax
	movl	%ebx, %r8d
	movq	%rax, %rdx
	call	_ZSt26__unguarded_insertion_sortIP13Keywords_rateN9__gnu_cxx5__ops15_Iter_less_iterEEvT_S5_T0_
	jmp	.L246
.L244:
	movq	-56(%rbp), %rax
	movl	%r9d, %r8d
	movq	%rax, %rdx
	movq	-64(%rbp), %rcx
	call	_ZSt16__insertion_sortIP13Keywords_rateN9__gnu_cxx5__ops15_Iter_less_iterEEvT_S5_T0_
.L246:
	nop
	addq	$40, %rsp
	popq	%rbx
	popq	%rbp
	ret
	.seh_endproc
	.section	.text$_ZNSaISt13_Rb_tree_nodeINSt7__cxx1112basic_stringIcSt11char_traitsIcESaIcEEEEEC2Ev,"x"
	.linkonce discard
	.align 2
	.globl	_ZNSaISt13_Rb_tree_nodeINSt7__cxx1112basic_stringIcSt11char_traitsIcESaIcEEEEEC2Ev
	.def	_ZNSaISt13_Rb_tree_nodeINSt7__cxx1112basic_stringIcSt11char_traitsIcESaIcEEEEEC2Ev;	.scl	2;	.type	32;	.endef
	.seh_proc	_ZNSaISt13_Rb_tree_nodeINSt7__cxx1112basic_stringIcSt11char_traitsIcESaIcEEEEEC2Ev
_ZNSaISt13_Rb_tree_nodeINSt7__cxx1112basic_stringIcSt11char_traitsIcESaIcEEEEEC2Ev:
.LFB2976:
	pushq	%rbp
	.seh_pushreg	%rbp
	movq	%rsp, %rbp
	.seh_setframe	%rbp, 0
	subq	$32, %rsp
	.seh_stackalloc	32
	.seh_endprologue
	movq	%rcx, 16(%rbp)
	movq	16(%rbp), %rcx
	call	_ZN9__gnu_cxx13new_allocatorISt13_Rb_tree_nodeINSt7__cxx1112basic_stringIcSt11char_traitsIcESaIcEEEEEC2Ev
	nop
	addq	$32, %rsp
	popq	%rbp
	ret
	.seh_endproc
	.section	.text$_ZNSt8_Rb_treeINSt7__cxx1112basic_stringIcSt11char_traitsIcESaIcEEES5_St9_IdentityIS5_ESt4lessIS5_ESaIS5_EE13_Rb_tree_implIS9_Lb1EE13_M_initializeEv,"x"
	.linkonce discard
	.align 2
	.globl	_ZNSt8_Rb_treeINSt7__cxx1112basic_stringIcSt11char_traitsIcESaIcEEES5_St9_IdentityIS5_ESt4lessIS5_ESaIS5_EE13_Rb_tree_implIS9_Lb1EE13_M_initializeEv
	.def	_ZNSt8_Rb_treeINSt7__cxx1112basic_stringIcSt11char_traitsIcESaIcEEES5_St9_IdentityIS5_ESt4lessIS5_ESaIS5_EE13_Rb_tree_implIS9_Lb1EE13_M_initializeEv;	.scl	2;	.type	32;	.endef
	.seh_proc	_ZNSt8_Rb_treeINSt7__cxx1112basic_stringIcSt11char_traitsIcESaIcEEES5_St9_IdentityIS5_ESt4lessIS5_ESaIS5_EE13_Rb_tree_implIS9_Lb1EE13_M_initializeEv
_ZNSt8_Rb_treeINSt7__cxx1112basic_stringIcSt11char_traitsIcESaIcEEES5_St9_IdentityIS5_ESt4lessIS5_ESaIS5_EE13_Rb_tree_implIS9_Lb1EE13_M_initializeEv:
.LFB2978:
	pushq	%rbp
	.seh_pushreg	%rbp
	movq	%rsp, %rbp
	.seh_setframe	%rbp, 0
	.seh_endprologue
	movq	%rcx, 16(%rbp)
	movq	16(%rbp), %rax
	movl	$0, 8(%rax)
	movq	16(%rbp), %rax
	movq	$0, 16(%rax)
	movq	16(%rbp), %rax
	leaq	8(%rax), %rdx
	movq	16(%rbp), %rax
	movq	%rdx, 24(%rax)
	movq	16(%rbp), %rax
	leaq	8(%rax), %rdx
	movq	16(%rbp), %rax
	movq	%rdx, 32(%rax)
	nop
	popq	%rbp
	ret
	.seh_endproc
	.section	.text$_ZN9__gnu_cxx13new_allocatorISt13_Rb_tree_nodeINSt7__cxx1112basic_stringIcSt11char_traitsIcESaIcEEEEED2Ev,"x"
	.linkonce discard
	.align 2
	.globl	_ZN9__gnu_cxx13new_allocatorISt13_Rb_tree_nodeINSt7__cxx1112basic_stringIcSt11char_traitsIcESaIcEEEEED2Ev
	.def	_ZN9__gnu_cxx13new_allocatorISt13_Rb_tree_nodeINSt7__cxx1112basic_stringIcSt11char_traitsIcESaIcEEEEED2Ev;	.scl	2;	.type	32;	.endef
	.seh_proc	_ZN9__gnu_cxx13new_allocatorISt13_Rb_tree_nodeINSt7__cxx1112basic_stringIcSt11char_traitsIcESaIcEEEEED2Ev
_ZN9__gnu_cxx13new_allocatorISt13_Rb_tree_nodeINSt7__cxx1112basic_stringIcSt11char_traitsIcESaIcEEEEED2Ev:
.LFB2980:
	pushq	%rbp
	.seh_pushreg	%rbp
	movq	%rsp, %rbp
	.seh_setframe	%rbp, 0
	.seh_endprologue
	movq	%rcx, 16(%rbp)
	nop
	popq	%rbp
	ret
	.seh_endproc
	.section	.text$_ZNSt8_Rb_treeINSt7__cxx1112basic_stringIcSt11char_traitsIcESaIcEEES5_St9_IdentityIS5_ESt4lessIS5_ESaIS5_EE8_S_rightEPSt18_Rb_tree_node_base,"x"
	.linkonce discard
	.globl	_ZNSt8_Rb_treeINSt7__cxx1112basic_stringIcSt11char_traitsIcESaIcEEES5_St9_IdentityIS5_ESt4lessIS5_ESaIS5_EE8_S_rightEPSt18_Rb_tree_node_base
	.def	_ZNSt8_Rb_treeINSt7__cxx1112basic_stringIcSt11char_traitsIcESaIcEEES5_St9_IdentityIS5_ESt4lessIS5_ESaIS5_EE8_S_rightEPSt18_Rb_tree_node_base;	.scl	2;	.type	32;	.endef
	.seh_proc	_ZNSt8_Rb_treeINSt7__cxx1112basic_stringIcSt11char_traitsIcESaIcEEES5_St9_IdentityIS5_ESt4lessIS5_ESaIS5_EE8_S_rightEPSt18_Rb_tree_node_base
_ZNSt8_Rb_treeINSt7__cxx1112basic_stringIcSt11char_traitsIcESaIcEEES5_St9_IdentityIS5_ESt4lessIS5_ESaIS5_EE8_S_rightEPSt18_Rb_tree_node_base:
.LFB2982:
	pushq	%rbp
	.seh_pushreg	%rbp
	movq	%rsp, %rbp
	.seh_setframe	%rbp, 0
	.seh_endprologue
	movq	%rcx, 16(%rbp)
	movq	16(%rbp), %rax
	movq	24(%rax), %rax
	popq	%rbp
	ret
	.seh_endproc
	.section	.text$_ZNSt8_Rb_treeINSt7__cxx1112basic_stringIcSt11char_traitsIcESaIcEEES5_St9_IdentityIS5_ESt4lessIS5_ESaIS5_EE7_S_leftEPSt18_Rb_tree_node_base,"x"
	.linkonce discard
	.globl	_ZNSt8_Rb_treeINSt7__cxx1112basic_stringIcSt11char_traitsIcESaIcEEES5_St9_IdentityIS5_ESt4lessIS5_ESaIS5_EE7_S_leftEPSt18_Rb_tree_node_base
	.def	_ZNSt8_Rb_treeINSt7__cxx1112basic_stringIcSt11char_traitsIcESaIcEEES5_St9_IdentityIS5_ESt4lessIS5_ESaIS5_EE7_S_leftEPSt18_Rb_tree_node_base;	.scl	2;	.type	32;	.endef
	.seh_proc	_ZNSt8_Rb_treeINSt7__cxx1112basic_stringIcSt11char_traitsIcESaIcEEES5_St9_IdentityIS5_ESt4lessIS5_ESaIS5_EE7_S_leftEPSt18_Rb_tree_node_base
_ZNSt8_Rb_treeINSt7__cxx1112basic_stringIcSt11char_traitsIcESaIcEEES5_St9_IdentityIS5_ESt4lessIS5_ESaIS5_EE7_S_leftEPSt18_Rb_tree_node_base:
.LFB2983:
	pushq	%rbp
	.seh_pushreg	%rbp
	movq	%rsp, %rbp
	.seh_setframe	%rbp, 0
	.seh_endprologue
	movq	%rcx, 16(%rbp)
	movq	16(%rbp), %rax
	movq	16(%rax), %rax
	popq	%rbp
	ret
	.seh_endproc
	.section	.text$_ZNSt8_Rb_treeINSt7__cxx1112basic_stringIcSt11char_traitsIcESaIcEEES5_St9_IdentityIS5_ESt4lessIS5_ESaIS5_EE12_M_drop_nodeEPSt13_Rb_tree_nodeIS5_E,"x"
	.linkonce discard
	.align 2
	.globl	_ZNSt8_Rb_treeINSt7__cxx1112basic_stringIcSt11char_traitsIcESaIcEEES5_St9_IdentityIS5_ESt4lessIS5_ESaIS5_EE12_M_drop_nodeEPSt13_Rb_tree_nodeIS5_E
	.def	_ZNSt8_Rb_treeINSt7__cxx1112basic_stringIcSt11char_traitsIcESaIcEEES5_St9_IdentityIS5_ESt4lessIS5_ESaIS5_EE12_M_drop_nodeEPSt13_Rb_tree_nodeIS5_E;	.scl	2;	.type	32;	.endef
	.seh_proc	_ZNSt8_Rb_treeINSt7__cxx1112basic_stringIcSt11char_traitsIcESaIcEEES5_St9_IdentityIS5_ESt4lessIS5_ESaIS5_EE12_M_drop_nodeEPSt13_Rb_tree_nodeIS5_E
_ZNSt8_Rb_treeINSt7__cxx1112basic_stringIcSt11char_traitsIcESaIcEEES5_St9_IdentityIS5_ESt4lessIS5_ESaIS5_EE12_M_drop_nodeEPSt13_Rb_tree_nodeIS5_E:
.LFB2984:
	pushq	%rbp
	.seh_pushreg	%rbp
	movq	%rsp, %rbp
	.seh_setframe	%rbp, 0
	subq	$32, %rsp
	.seh_stackalloc	32
	.seh_endprologue
	movq	%rcx, 16(%rbp)
	movq	%rdx, 24(%rbp)
	movq	24(%rbp), %rax
	movq	%rax, %rdx
	movq	16(%rbp), %rcx
	call	_ZNSt8_Rb_treeINSt7__cxx1112basic_stringIcSt11char_traitsIcESaIcEEES5_St9_IdentityIS5_ESt4lessIS5_ESaIS5_EE15_M_destroy_nodeEPSt13_Rb_tree_nodeIS5_E
	movq	24(%rbp), %rax
	movq	%rax, %rdx
	movq	16(%rbp), %rcx
	call	_ZNSt8_Rb_treeINSt7__cxx1112basic_stringIcSt11char_traitsIcESaIcEEES5_St9_IdentityIS5_ESt4lessIS5_ESaIS5_EE11_M_put_nodeEPSt13_Rb_tree_nodeIS5_E
	nop
	addq	$32, %rsp
	popq	%rbp
	ret
	.seh_endproc
	.section	.text$_ZNSt8_Rb_treeINSt7__cxx1112basic_stringIcSt11char_traitsIcESaIcEEES5_St9_IdentityIS5_ESt4lessIS5_ESaIS5_EE6_S_keyEPKSt13_Rb_tree_nodeIS5_E,"x"
	.linkonce discard
	.globl	_ZNSt8_Rb_treeINSt7__cxx1112basic_stringIcSt11char_traitsIcESaIcEEES5_St9_IdentityIS5_ESt4lessIS5_ESaIS5_EE6_S_keyEPKSt13_Rb_tree_nodeIS5_E
	.def	_ZNSt8_Rb_treeINSt7__cxx1112basic_stringIcSt11char_traitsIcESaIcEEES5_St9_IdentityIS5_ESt4lessIS5_ESaIS5_EE6_S_keyEPKSt13_Rb_tree_nodeIS5_E;	.scl	2;	.type	32;	.endef
	.seh_proc	_ZNSt8_Rb_treeINSt7__cxx1112basic_stringIcSt11char_traitsIcESaIcEEES5_St9_IdentityIS5_ESt4lessIS5_ESaIS5_EE6_S_keyEPKSt13_Rb_tree_nodeIS5_E
_ZNSt8_Rb_treeINSt7__cxx1112basic_stringIcSt11char_traitsIcESaIcEEES5_St9_IdentityIS5_ESt4lessIS5_ESaIS5_EE6_S_keyEPKSt13_Rb_tree_nodeIS5_E:
.LFB2985:
	pushq	%rbp
	.seh_pushreg	%rbp
	movq	%rsp, %rbp
	.seh_setframe	%rbp, 0
	subq	$48, %rsp
	.seh_stackalloc	48
	.seh_endprologue
	movq	%rcx, 16(%rbp)
	movq	16(%rbp), %rcx
	call	_ZNSt8_Rb_treeINSt7__cxx1112basic_stringIcSt11char_traitsIcESaIcEEES5_St9_IdentityIS5_ESt4lessIS5_ESaIS5_EE8_S_valueEPKSt13_Rb_tree_nodeIS5_E
	movq	%rax, %rdx
	leaq	-1(%rbp), %rax
	movq	%rax, %rcx
	call	_ZNKSt9_IdentityINSt7__cxx1112basic_stringIcSt11char_traitsIcESaIcEEEEclERKS5_
	addq	$48, %rsp
	popq	%rbp
	ret
	.seh_endproc
	.section	.text$_ZNSt8_Rb_treeINSt7__cxx1112basic_stringIcSt11char_traitsIcESaIcEEES5_St9_IdentityIS5_ESt4lessIS5_ESaIS5_EE5beginEv,"x"
	.linkonce discard
	.align 2
	.globl	_ZNSt8_Rb_treeINSt7__cxx1112basic_stringIcSt11char_traitsIcESaIcEEES5_St9_IdentityIS5_ESt4lessIS5_ESaIS5_EE5beginEv
	.def	_ZNSt8_Rb_treeINSt7__cxx1112basic_stringIcSt11char_traitsIcESaIcEEES5_St9_IdentityIS5_ESt4lessIS5_ESaIS5_EE5beginEv;	.scl	2;	.type	32;	.endef
	.seh_proc	_ZNSt8_Rb_treeINSt7__cxx1112basic_stringIcSt11char_traitsIcESaIcEEES5_St9_IdentityIS5_ESt4lessIS5_ESaIS5_EE5beginEv
_ZNSt8_Rb_treeINSt7__cxx1112basic_stringIcSt11char_traitsIcESaIcEEES5_St9_IdentityIS5_ESt4lessIS5_ESaIS5_EE5beginEv:
.LFB2986:
	pushq	%rbp
	.seh_pushreg	%rbp
	movq	%rsp, %rbp
	.seh_setframe	%rbp, 0
	subq	$48, %rsp
	.seh_stackalloc	48
	.seh_endprologue
	movq	%rcx, 16(%rbp)
	movq	16(%rbp), %rax
	movq	24(%rax), %rdx
	leaq	-16(%rbp), %rax
	movq	%rax, %rcx
	call	_ZNSt17_Rb_tree_iteratorINSt7__cxx1112basic_stringIcSt11char_traitsIcESaIcEEEEC1EPSt18_Rb_tree_node_base
	movq	-16(%rbp), %rax
	addq	$48, %rsp
	popq	%rbp
	ret
	.seh_endproc
	.section	.text$_ZNSt17_Rb_tree_iteratorINSt7__cxx1112basic_stringIcSt11char_traitsIcESaIcEEEEmmEv,"x"
	.linkonce discard
	.align 2
	.globl	_ZNSt17_Rb_tree_iteratorINSt7__cxx1112basic_stringIcSt11char_traitsIcESaIcEEEEmmEv
	.def	_ZNSt17_Rb_tree_iteratorINSt7__cxx1112basic_stringIcSt11char_traitsIcESaIcEEEEmmEv;	.scl	2;	.type	32;	.endef
	.seh_proc	_ZNSt17_Rb_tree_iteratorINSt7__cxx1112basic_stringIcSt11char_traitsIcESaIcEEEEmmEv
_ZNSt17_Rb_tree_iteratorINSt7__cxx1112basic_stringIcSt11char_traitsIcESaIcEEEEmmEv:
.LFB2987:
	pushq	%rbp
	.seh_pushreg	%rbp
	movq	%rsp, %rbp
	.seh_setframe	%rbp, 0
	subq	$32, %rsp
	.seh_stackalloc	32
	.seh_endprologue
	movq	%rcx, 16(%rbp)
	movq	16(%rbp), %rax
	movq	(%rax), %rax
	movq	%rax, %rcx
	call	_ZSt18_Rb_tree_decrementPSt18_Rb_tree_node_base
	movq	%rax, %rdx
	movq	16(%rbp), %rax
	movq	%rdx, (%rax)
	movq	16(%rbp), %rax
	addq	$32, %rsp
	popq	%rbp
	ret
	.seh_endproc
	.section	.text$_ZNKSt8_Rb_treeINSt7__cxx1112basic_stringIcSt11char_traitsIcESaIcEEES5_St9_IdentityIS5_ESt4lessIS5_ESaIS5_EE11_Alloc_nodeclIRKS5_EEPSt13_Rb_tree_nodeIS5_EOT_,"x"
	.linkonce discard
	.align 2
	.globl	_ZNKSt8_Rb_treeINSt7__cxx1112basic_stringIcSt11char_traitsIcESaIcEEES5_St9_IdentityIS5_ESt4lessIS5_ESaIS5_EE11_Alloc_nodeclIRKS5_EEPSt13_Rb_tree_nodeIS5_EOT_
	.def	_ZNKSt8_Rb_treeINSt7__cxx1112basic_stringIcSt11char_traitsIcESaIcEEES5_St9_IdentityIS5_ESt4lessIS5_ESaIS5_EE11_Alloc_nodeclIRKS5_EEPSt13_Rb_tree_nodeIS5_EOT_;	.scl	2;	.type	32;	.endef
	.seh_proc	_ZNKSt8_Rb_treeINSt7__cxx1112basic_stringIcSt11char_traitsIcESaIcEEES5_St9_IdentityIS5_ESt4lessIS5_ESaIS5_EE11_Alloc_nodeclIRKS5_EEPSt13_Rb_tree_nodeIS5_EOT_
_ZNKSt8_Rb_treeINSt7__cxx1112basic_stringIcSt11char_traitsIcESaIcEEES5_St9_IdentityIS5_ESt4lessIS5_ESaIS5_EE11_Alloc_nodeclIRKS5_EEPSt13_Rb_tree_nodeIS5_EOT_:
.LFB2988:
	pushq	%rbp
	.seh_pushreg	%rbp
	movq	%rsp, %rbp
	.seh_setframe	%rbp, 0
	subq	$32, %rsp
	.seh_stackalloc	32
	.seh_endprologue
	movq	%rcx, 16(%rbp)
	movq	%rdx, 24(%rbp)
	movq	24(%rbp), %rax
	movq	%rax, %rcx
	call	_ZSt7forwardIRKNSt7__cxx1112basic_stringIcSt11char_traitsIcESaIcEEEEOT_RNSt16remove_referenceIS8_E4typeE
	movq	%rax, %rdx
	movq	16(%rbp), %rax
	movq	(%rax), %rax
	movq	%rax, %rcx
	call	_ZNSt8_Rb_treeINSt7__cxx1112basic_stringIcSt11char_traitsIcESaIcEEES5_St9_IdentityIS5_ESt4lessIS5_ESaIS5_EE14_M_create_nodeIJRKS5_EEEPSt13_Rb_tree_nodeIS5_EDpOT_
	addq	$32, %rsp
	popq	%rbp
	ret
	.seh_endproc
	.section	.text$_ZNSt8_Rb_treeINSt7__cxx1112basic_stringIcSt11char_traitsIcESaIcEEES5_St9_IdentityIS5_ESt4lessIS5_ESaIS5_EE8_S_valueEPKSt18_Rb_tree_node_base,"x"
	.linkonce discard
	.globl	_ZNSt8_Rb_treeINSt7__cxx1112basic_stringIcSt11char_traitsIcESaIcEEES5_St9_IdentityIS5_ESt4lessIS5_ESaIS5_EE8_S_valueEPKSt18_Rb_tree_node_base
	.def	_ZNSt8_Rb_treeINSt7__cxx1112basic_stringIcSt11char_traitsIcESaIcEEES5_St9_IdentityIS5_ESt4lessIS5_ESaIS5_EE8_S_valueEPKSt18_Rb_tree_node_base;	.scl	2;	.type	32;	.endef
	.seh_proc	_ZNSt8_Rb_treeINSt7__cxx1112basic_stringIcSt11char_traitsIcESaIcEEES5_St9_IdentityIS5_ESt4lessIS5_ESaIS5_EE8_S_valueEPKSt18_Rb_tree_node_base
_ZNSt8_Rb_treeINSt7__cxx1112basic_stringIcSt11char_traitsIcESaIcEEES5_St9_IdentityIS5_ESt4lessIS5_ESaIS5_EE8_S_valueEPKSt18_Rb_tree_node_base:
.LFB2989:
	pushq	%rbp
	.seh_pushreg	%rbp
	movq	%rsp, %rbp
	.seh_setframe	%rbp, 0
	subq	$32, %rsp
	.seh_stackalloc	32
	.seh_endprologue
	movq	%rcx, 16(%rbp)
	movq	16(%rbp), %rcx
	call	_ZNKSt13_Rb_tree_nodeINSt7__cxx1112basic_stringIcSt11char_traitsIcESaIcEEEE9_M_valptrEv
	addq	$32, %rsp
	popq	%rbp
	ret
	.seh_endproc
	.section	.text$_ZSt14__partial_sortIP13Keywords_rateN9__gnu_cxx5__ops15_Iter_less_iterEEvT_S5_S5_T0_,"x"
	.linkonce discard
	.globl	_ZSt14__partial_sortIP13Keywords_rateN9__gnu_cxx5__ops15_Iter_less_iterEEvT_S5_S5_T0_
	.def	_ZSt14__partial_sortIP13Keywords_rateN9__gnu_cxx5__ops15_Iter_less_iterEEvT_S5_S5_T0_;	.scl	2;	.type	32;	.endef
	.seh_proc	_ZSt14__partial_sortIP13Keywords_rateN9__gnu_cxx5__ops15_Iter_less_iterEEvT_S5_S5_T0_
_ZSt14__partial_sortIP13Keywords_rateN9__gnu_cxx5__ops15_Iter_less_iterEEvT_S5_S5_T0_:
.LFB2990:
	pushq	%rbp
	.seh_pushreg	%rbp
	pushq	%rbx
	.seh_pushreg	%rbx
	subq	$40, %rsp
	.seh_stackalloc	40
	leaq	128(%rsp), %rbp
	.seh_setframe	%rbp, 128
	.seh_endprologue
	movq	%rcx, -64(%rbp)
	movq	%rdx, -56(%rbp)
	movq	%r8, -48(%rbp)
	movb	%r9b, -40(%rbp)
	movq	-48(%rbp), %rdx
	movq	-56(%rbp), %rax
	movl	%r10d, %r9d
	movq	%rdx, %r8
	movq	%rax, %rdx
	movq	-64(%rbp), %rcx
	call	_ZSt13__heap_selectIP13Keywords_rateN9__gnu_cxx5__ops15_Iter_less_iterEEvT_S5_S5_T0_
	movq	-56(%rbp), %rax
	movl	%ebx, %r8d
	movq	%rax, %rdx
	movq	-64(%rbp), %rcx
	call	_ZSt11__sort_heapIP13Keywords_rateN9__gnu_cxx5__ops15_Iter_less_iterEEvT_S5_T0_
	nop
	addq	$40, %rsp
	popq	%rbx
	popq	%rbp
	ret
	.seh_endproc
	.section	.text$_ZSt27__unguarded_partition_pivotIP13Keywords_rateN9__gnu_cxx5__ops15_Iter_less_iterEET_S5_S5_T0_,"x"
	.linkonce discard
	.globl	_ZSt27__unguarded_partition_pivotIP13Keywords_rateN9__gnu_cxx5__ops15_Iter_less_iterEET_S5_S5_T0_
	.def	_ZSt27__unguarded_partition_pivotIP13Keywords_rateN9__gnu_cxx5__ops15_Iter_less_iterEET_S5_S5_T0_;	.scl	2;	.type	32;	.endef
	.seh_proc	_ZSt27__unguarded_partition_pivotIP13Keywords_rateN9__gnu_cxx5__ops15_Iter_less_iterEET_S5_S5_T0_
_ZSt27__unguarded_partition_pivotIP13Keywords_rateN9__gnu_cxx5__ops15_Iter_less_iterEET_S5_S5_T0_:
.LFB2991:
	pushq	%rbp
	.seh_pushreg	%rbp
	pushq	%rbx
	.seh_pushreg	%rbx
	subq	$72, %rsp
	.seh_stackalloc	72
	leaq	128(%rsp), %rbp
	.seh_setframe	%rbp, 128
	.seh_endprologue
	movq	%rcx, -32(%rbp)
	movq	%rdx, -24(%rbp)
	movb	%r8b, -16(%rbp)
	movq	-24(%rbp), %rdx
	movq	-32(%rbp), %rax
	subq	%rax, %rdx
	movq	%rdx, %rax
	sarq	$4, %rax
	movq	%rax, %rdx
	shrq	$63, %rdx
	addq	%rdx, %rax
	sarq	%rax
	salq	$4, %rax
	movq	%rax, %rdx
	movq	-32(%rbp), %rax
	addq	%rdx, %rax
	movq	%rax, -72(%rbp)
	movq	-24(%rbp), %rax
	leaq	-16(%rax), %rcx
	movq	-32(%rbp), %rax
	addq	$16, %rax
	movq	-72(%rbp), %rdx
	movb	%r9b, 32(%rsp)
	movq	%rcx, %r9
	movq	%rdx, %r8
	movq	%rax, %rdx
	movq	-32(%rbp), %rcx
	call	_ZSt22__move_median_to_firstIP13Keywords_rateN9__gnu_cxx5__ops15_Iter_less_iterEEvT_S5_S5_S5_T0_
	movq	-32(%rbp), %rax
	leaq	16(%rax), %rcx
	movq	-24(%rbp), %rax
	movl	%ebx, %r9d
	movq	-32(%rbp), %r8
	movq	%rax, %rdx
	call	_ZSt21__unguarded_partitionIP13Keywords_rateN9__gnu_cxx5__ops15_Iter_less_iterEET_S5_S5_S5_T0_
	addq	$72, %rsp
	popq	%rbx
	popq	%rbp
	ret
	.seh_endproc
	.section	.text$_ZNK9__gnu_cxx5__ops15_Iter_less_iterclIP13Keywords_rateS4_EEbT_T0_,"x"
	.linkonce discard
	.align 2
	.globl	_ZNK9__gnu_cxx5__ops15_Iter_less_iterclIP13Keywords_rateS4_EEbT_T0_
	.def	_ZNK9__gnu_cxx5__ops15_Iter_less_iterclIP13Keywords_rateS4_EEbT_T0_;	.scl	2;	.type	32;	.endef
	.seh_proc	_ZNK9__gnu_cxx5__ops15_Iter_less_iterclIP13Keywords_rateS4_EEbT_T0_
_ZNK9__gnu_cxx5__ops15_Iter_less_iterclIP13Keywords_rateS4_EEbT_T0_:
.LFB2993:
	pushq	%rbp
	.seh_pushreg	%rbp
	movq	%rsp, %rbp
	.seh_setframe	%rbp, 0
	subq	$32, %rsp
	.seh_stackalloc	32
	.seh_endprologue
	movq	%rcx, 16(%rbp)
	movq	%rdx, 24(%rbp)
	movq	%r8, 32(%rbp)
	movq	32(%rbp), %rdx
	movq	24(%rbp), %rax
	movq	%rax, %rcx
	call	_ZN13Keywords_rateltERKS_
	addq	$32, %rsp
	popq	%rbp
	ret
	.seh_endproc
	.section	.text$_ZSt4moveIR13Keywords_rateEONSt16remove_referenceIT_E4typeEOS3_,"x"
	.linkonce discard
	.globl	_ZSt4moveIR13Keywords_rateEONSt16remove_referenceIT_E4typeEOS3_
	.def	_ZSt4moveIR13Keywords_rateEONSt16remove_referenceIT_E4typeEOS3_;	.scl	2;	.type	32;	.endef
	.seh_proc	_ZSt4moveIR13Keywords_rateEONSt16remove_referenceIT_E4typeEOS3_
_ZSt4moveIR13Keywords_rateEONSt16remove_referenceIT_E4typeEOS3_:
.LFB2994:
	pushq	%rbp
	.seh_pushreg	%rbp
	movq	%rsp, %rbp
	.seh_setframe	%rbp, 0
	.seh_endprologue
	movq	%rcx, 16(%rbp)
	movq	16(%rbp), %rax
	popq	%rbp
	ret
	.seh_endproc
	.section	.text$_ZSt16__insertion_sortIP13Keywords_rateN9__gnu_cxx5__ops15_Iter_less_iterEEvT_S5_T0_,"x"
	.linkonce discard
	.globl	_ZSt16__insertion_sortIP13Keywords_rateN9__gnu_cxx5__ops15_Iter_less_iterEEvT_S5_T0_
	.def	_ZSt16__insertion_sortIP13Keywords_rateN9__gnu_cxx5__ops15_Iter_less_iterEEvT_S5_T0_;	.scl	2;	.type	32;	.endef
	.seh_proc	_ZSt16__insertion_sortIP13Keywords_rateN9__gnu_cxx5__ops15_Iter_less_iterEEvT_S5_T0_
_ZSt16__insertion_sortIP13Keywords_rateN9__gnu_cxx5__ops15_Iter_less_iterEEvT_S5_T0_:
.LFB2992:
	pushq	%rbp
	.seh_pushreg	%rbp
	pushq	%rsi
	.seh_pushreg	%rsi
	pushq	%rbx
	.seh_pushreg	%rbx
	movq	%rsp, %rbp
	.seh_setframe	%rbp, 0
	subq	$64, %rsp
	.seh_stackalloc	64
	.seh_endprologue
	movq	%rcx, 32(%rbp)
	movq	%rdx, 40(%rbp)
	movb	%r8b, 48(%rbp)
	movq	32(%rbp), %rax
	cmpq	40(%rbp), %rax
	je	.L278
	movq	32(%rbp), %rax
	addq	$16, %rax
	movq	%rax, -8(%rbp)
.L277:
	movq	-8(%rbp), %rax
	cmpq	40(%rbp), %rax
	je	.L272
	movq	-8(%rbp), %rdx
	leaq	48(%rbp), %rax
	movq	32(%rbp), %r8
	movq	%rax, %rcx
	call	_ZNK9__gnu_cxx5__ops15_Iter_less_iterclIP13Keywords_rateS4_EEbT_T0_
	testb	%al, %al
	je	.L275
	movq	-8(%rbp), %rax
	movq	%rax, %rcx
	call	_ZSt4moveIR13Keywords_rateEONSt16remove_referenceIT_E4typeEOS3_
	movq	8(%rax), %rdx
	movq	(%rax), %rax
	movq	%rax, -32(%rbp)
	movq	%rdx, -24(%rbp)
	movq	-8(%rbp), %rax
	leaq	16(%rax), %rdx
	movq	-8(%rbp), %rax
	movq	%rdx, %r8
	movq	%rax, %rdx
	movq	32(%rbp), %rcx
	call	_ZSt13move_backwardIP13Keywords_rateS1_ET0_T_S3_S2_
	leaq	-32(%rbp), %rax
	movq	%rax, %rcx
	call	_ZSt4moveIR13Keywords_rateEONSt16remove_referenceIT_E4typeEOS3_
	movq	32(%rbp), %rcx
	movq	8(%rax), %rdx
	movq	(%rax), %rax
	movq	%rax, (%rcx)
	movq	%rdx, 8(%rcx)
	jmp	.L276
.L275:
	movl	%esi, %ecx
	call	_ZN9__gnu_cxx5__ops15__val_comp_iterENS0_15_Iter_less_iterE
	movq	-8(%rbp), %rax
	movl	%ebx, %edx
	movq	%rax, %rcx
	call	_ZSt25__unguarded_linear_insertIP13Keywords_rateN9__gnu_cxx5__ops14_Val_less_iterEEvT_T0_
.L276:
	addq	$16, -8(%rbp)
	jmp	.L277
.L278:
	nop
.L272:
	addq	$64, %rsp
	popq	%rbx
	popq	%rsi
	popq	%rbp
	ret
	.seh_endproc
	.section	.text$_ZSt26__unguarded_insertion_sortIP13Keywords_rateN9__gnu_cxx5__ops15_Iter_less_iterEEvT_S5_T0_,"x"
	.linkonce discard
	.globl	_ZSt26__unguarded_insertion_sortIP13Keywords_rateN9__gnu_cxx5__ops15_Iter_less_iterEEvT_S5_T0_
	.def	_ZSt26__unguarded_insertion_sortIP13Keywords_rateN9__gnu_cxx5__ops15_Iter_less_iterEEvT_S5_T0_;	.scl	2;	.type	32;	.endef
	.seh_proc	_ZSt26__unguarded_insertion_sortIP13Keywords_rateN9__gnu_cxx5__ops15_Iter_less_iterEEvT_S5_T0_
_ZSt26__unguarded_insertion_sortIP13Keywords_rateN9__gnu_cxx5__ops15_Iter_less_iterEEvT_S5_T0_:
.LFB2995:
	pushq	%rbp
	.seh_pushreg	%rbp
	pushq	%rsi
	.seh_pushreg	%rsi
	pushq	%rbx
	.seh_pushreg	%rbx
	movq	%rsp, %rbp
	.seh_setframe	%rbp, 0
	subq	$48, %rsp
	.seh_stackalloc	48
	.seh_endprologue
	movq	%rcx, 32(%rbp)
	movq	%rdx, 40(%rbp)
	movb	%r8b, 48(%rbp)
	movq	32(%rbp), %rax
	movq	%rax, -8(%rbp)
.L281:
	movq	-8(%rbp), %rax
	cmpq	40(%rbp), %rax
	je	.L282
	movl	%esi, %ecx
	call	_ZN9__gnu_cxx5__ops15__val_comp_iterENS0_15_Iter_less_iterE
	movq	-8(%rbp), %rax
	movl	%ebx, %edx
	movq	%rax, %rcx
	call	_ZSt25__unguarded_linear_insertIP13Keywords_rateN9__gnu_cxx5__ops14_Val_less_iterEEvT_T0_
	addq	$16, -8(%rbp)
	jmp	.L281
.L282:
	nop
	addq	$48, %rsp
	popq	%rbx
	popq	%rsi
	popq	%rbp
	ret
	.seh_endproc
	.section	.text$_ZN9__gnu_cxx13new_allocatorISt13_Rb_tree_nodeINSt7__cxx1112basic_stringIcSt11char_traitsIcESaIcEEEEEC2Ev,"x"
	.linkonce discard
	.align 2
	.globl	_ZN9__gnu_cxx13new_allocatorISt13_Rb_tree_nodeINSt7__cxx1112basic_stringIcSt11char_traitsIcESaIcEEEEEC2Ev
	.def	_ZN9__gnu_cxx13new_allocatorISt13_Rb_tree_nodeINSt7__cxx1112basic_stringIcSt11char_traitsIcESaIcEEEEEC2Ev;	.scl	2;	.type	32;	.endef
	.seh_proc	_ZN9__gnu_cxx13new_allocatorISt13_Rb_tree_nodeINSt7__cxx1112basic_stringIcSt11char_traitsIcESaIcEEEEEC2Ev
_ZN9__gnu_cxx13new_allocatorISt13_Rb_tree_nodeINSt7__cxx1112basic_stringIcSt11char_traitsIcESaIcEEEEEC2Ev:
.LFB3026:
	pushq	%rbp
	.seh_pushreg	%rbp
	movq	%rsp, %rbp
	.seh_setframe	%rbp, 0
	.seh_endprologue
	movq	%rcx, 16(%rbp)
	nop
	popq	%rbp
	ret
	.seh_endproc
	.section	.text$_ZNSt8_Rb_treeINSt7__cxx1112basic_stringIcSt11char_traitsIcESaIcEEES5_St9_IdentityIS5_ESt4lessIS5_ESaIS5_EE15_M_destroy_nodeEPSt13_Rb_tree_nodeIS5_E,"x"
	.linkonce discard
	.align 2
	.globl	_ZNSt8_Rb_treeINSt7__cxx1112basic_stringIcSt11char_traitsIcESaIcEEES5_St9_IdentityIS5_ESt4lessIS5_ESaIS5_EE15_M_destroy_nodeEPSt13_Rb_tree_nodeIS5_E
	.def	_ZNSt8_Rb_treeINSt7__cxx1112basic_stringIcSt11char_traitsIcESaIcEEES5_St9_IdentityIS5_ESt4lessIS5_ESaIS5_EE15_M_destroy_nodeEPSt13_Rb_tree_nodeIS5_E;	.scl	2;	.type	32;	.endef
	.seh_proc	_ZNSt8_Rb_treeINSt7__cxx1112basic_stringIcSt11char_traitsIcESaIcEEES5_St9_IdentityIS5_ESt4lessIS5_ESaIS5_EE15_M_destroy_nodeEPSt13_Rb_tree_nodeIS5_E
_ZNSt8_Rb_treeINSt7__cxx1112basic_stringIcSt11char_traitsIcESaIcEEES5_St9_IdentityIS5_ESt4lessIS5_ESaIS5_EE15_M_destroy_nodeEPSt13_Rb_tree_nodeIS5_E:
.LFB3028:
	pushq	%rbp
	.seh_pushreg	%rbp
	pushq	%rbx
	.seh_pushreg	%rbx
	subq	$40, %rsp
	.seh_stackalloc	40
	leaq	128(%rsp), %rbp
	.seh_setframe	%rbp, 128
	.seh_endprologue
	movq	%rcx, -64(%rbp)
	movq	%rdx, -56(%rbp)
	movq	-56(%rbp), %rax
	movq	%rax, %rcx
	call	_ZNSt13_Rb_tree_nodeINSt7__cxx1112basic_stringIcSt11char_traitsIcESaIcEEEE9_M_valptrEv
	movq	%rax, %rbx
	movq	-64(%rbp), %rcx
	call	_ZNSt8_Rb_treeINSt7__cxx1112basic_stringIcSt11char_traitsIcESaIcEEES5_St9_IdentityIS5_ESt4lessIS5_ESaIS5_EE21_M_get_Node_allocatorEv
	movq	%rbx, %rdx
	movq	%rax, %rcx
	call	_ZNSt16allocator_traitsISaISt13_Rb_tree_nodeINSt7__cxx1112basic_stringIcSt11char_traitsIcESaIcEEEEEE7destroyIS6_EEvRS8_PT_
	nop
	addq	$40, %rsp
	popq	%rbx
	popq	%rbp
	ret
	.seh_handler	__gxx_personality_seh0, @unwind, @except
	.seh_handlerdata
.LLSDA3028:
	.byte	0xff
	.byte	0xff
	.byte	0x1
	.uleb128 .LLSDACSE3028-.LLSDACSB3028
.LLSDACSB3028:
.LLSDACSE3028:
	.section	.text$_ZNSt8_Rb_treeINSt7__cxx1112basic_stringIcSt11char_traitsIcESaIcEEES5_St9_IdentityIS5_ESt4lessIS5_ESaIS5_EE15_M_destroy_nodeEPSt13_Rb_tree_nodeIS5_E,"x"
	.linkonce discard
	.seh_endproc
	.section	.text$_ZNSt8_Rb_treeINSt7__cxx1112basic_stringIcSt11char_traitsIcESaIcEEES5_St9_IdentityIS5_ESt4lessIS5_ESaIS5_EE11_M_put_nodeEPSt13_Rb_tree_nodeIS5_E,"x"
	.linkonce discard
	.align 2
	.globl	_ZNSt8_Rb_treeINSt7__cxx1112basic_stringIcSt11char_traitsIcESaIcEEES5_St9_IdentityIS5_ESt4lessIS5_ESaIS5_EE11_M_put_nodeEPSt13_Rb_tree_nodeIS5_E
	.def	_ZNSt8_Rb_treeINSt7__cxx1112basic_stringIcSt11char_traitsIcESaIcEEES5_St9_IdentityIS5_ESt4lessIS5_ESaIS5_EE11_M_put_nodeEPSt13_Rb_tree_nodeIS5_E;	.scl	2;	.type	32;	.endef
	.seh_proc	_ZNSt8_Rb_treeINSt7__cxx1112basic_stringIcSt11char_traitsIcESaIcEEES5_St9_IdentityIS5_ESt4lessIS5_ESaIS5_EE11_M_put_nodeEPSt13_Rb_tree_nodeIS5_E
_ZNSt8_Rb_treeINSt7__cxx1112basic_stringIcSt11char_traitsIcESaIcEEES5_St9_IdentityIS5_ESt4lessIS5_ESaIS5_EE11_M_put_nodeEPSt13_Rb_tree_nodeIS5_E:
.LFB3029:
	pushq	%rbp
	.seh_pushreg	%rbp
	movq	%rsp, %rbp
	.seh_setframe	%rbp, 0
	subq	$32, %rsp
	.seh_stackalloc	32
	.seh_endprologue
	movq	%rcx, 16(%rbp)
	movq	%rdx, 24(%rbp)
	movq	16(%rbp), %rcx
	call	_ZNSt8_Rb_treeINSt7__cxx1112basic_stringIcSt11char_traitsIcESaIcEEES5_St9_IdentityIS5_ESt4lessIS5_ESaIS5_EE21_M_get_Node_allocatorEv
	movq	%rax, %rcx
	movq	24(%rbp), %rax
	movl	$1, %r8d
	movq	%rax, %rdx
	call	_ZNSt16allocator_traitsISaISt13_Rb_tree_nodeINSt7__cxx1112basic_stringIcSt11char_traitsIcESaIcEEEEEE10deallocateERS8_PS7_y
	nop
	addq	$32, %rsp
	popq	%rbp
	ret
	.seh_handler	__gxx_personality_seh0, @unwind, @except
	.seh_handlerdata
.LLSDA3029:
	.byte	0xff
	.byte	0xff
	.byte	0x1
	.uleb128 .LLSDACSE3029-.LLSDACSB3029
.LLSDACSB3029:
.LLSDACSE3029:
	.section	.text$_ZNSt8_Rb_treeINSt7__cxx1112basic_stringIcSt11char_traitsIcESaIcEEES5_St9_IdentityIS5_ESt4lessIS5_ESaIS5_EE11_M_put_nodeEPSt13_Rb_tree_nodeIS5_E,"x"
	.linkonce discard
	.seh_endproc
	.section	.text$_ZNSt8_Rb_treeINSt7__cxx1112basic_stringIcSt11char_traitsIcESaIcEEES5_St9_IdentityIS5_ESt4lessIS5_ESaIS5_EE8_S_valueEPKSt13_Rb_tree_nodeIS5_E,"x"
	.linkonce discard
	.globl	_ZNSt8_Rb_treeINSt7__cxx1112basic_stringIcSt11char_traitsIcESaIcEEES5_St9_IdentityIS5_ESt4lessIS5_ESaIS5_EE8_S_valueEPKSt13_Rb_tree_nodeIS5_E
	.def	_ZNSt8_Rb_treeINSt7__cxx1112basic_stringIcSt11char_traitsIcESaIcEEES5_St9_IdentityIS5_ESt4lessIS5_ESaIS5_EE8_S_valueEPKSt13_Rb_tree_nodeIS5_E;	.scl	2;	.type	32;	.endef
	.seh_proc	_ZNSt8_Rb_treeINSt7__cxx1112basic_stringIcSt11char_traitsIcESaIcEEES5_St9_IdentityIS5_ESt4lessIS5_ESaIS5_EE8_S_valueEPKSt13_Rb_tree_nodeIS5_E
_ZNSt8_Rb_treeINSt7__cxx1112basic_stringIcSt11char_traitsIcESaIcEEES5_St9_IdentityIS5_ESt4lessIS5_ESaIS5_EE8_S_valueEPKSt13_Rb_tree_nodeIS5_E:
.LFB3030:
	pushq	%rbp
	.seh_pushreg	%rbp
	movq	%rsp, %rbp
	.seh_setframe	%rbp, 0
	subq	$32, %rsp
	.seh_stackalloc	32
	.seh_endprologue
	movq	%rcx, 16(%rbp)
	movq	16(%rbp), %rcx
	call	_ZNKSt13_Rb_tree_nodeINSt7__cxx1112basic_stringIcSt11char_traitsIcESaIcEEEE9_M_valptrEv
	addq	$32, %rsp
	popq	%rbp
	ret
	.seh_endproc
	.section	.text$_ZNSt8_Rb_treeINSt7__cxx1112basic_stringIcSt11char_traitsIcESaIcEEES5_St9_IdentityIS5_ESt4lessIS5_ESaIS5_EE14_M_create_nodeIJRKS5_EEEPSt13_Rb_tree_nodeIS5_EDpOT_,"x"
	.linkonce discard
	.align 2
	.globl	_ZNSt8_Rb_treeINSt7__cxx1112basic_stringIcSt11char_traitsIcESaIcEEES5_St9_IdentityIS5_ESt4lessIS5_ESaIS5_EE14_M_create_nodeIJRKS5_EEEPSt13_Rb_tree_nodeIS5_EDpOT_
	.def	_ZNSt8_Rb_treeINSt7__cxx1112basic_stringIcSt11char_traitsIcESaIcEEES5_St9_IdentityIS5_ESt4lessIS5_ESaIS5_EE14_M_create_nodeIJRKS5_EEEPSt13_Rb_tree_nodeIS5_EDpOT_;	.scl	2;	.type	32;	.endef
	.seh_proc	_ZNSt8_Rb_treeINSt7__cxx1112basic_stringIcSt11char_traitsIcESaIcEEES5_St9_IdentityIS5_ESt4lessIS5_ESaIS5_EE14_M_create_nodeIJRKS5_EEEPSt13_Rb_tree_nodeIS5_EDpOT_
_ZNSt8_Rb_treeINSt7__cxx1112basic_stringIcSt11char_traitsIcESaIcEEES5_St9_IdentityIS5_ESt4lessIS5_ESaIS5_EE14_M_create_nodeIJRKS5_EEEPSt13_Rb_tree_nodeIS5_EDpOT_:
.LFB3031:
	pushq	%rbp
	.seh_pushreg	%rbp
	movq	%rsp, %rbp
	.seh_setframe	%rbp, 0
	subq	$48, %rsp
	.seh_stackalloc	48
	.seh_endprologue
	movq	%rcx, 16(%rbp)
	movq	%rdx, 24(%rbp)
	movq	16(%rbp), %rcx
	call	_ZNSt8_Rb_treeINSt7__cxx1112basic_stringIcSt11char_traitsIcESaIcEEES5_St9_IdentityIS5_ESt4lessIS5_ESaIS5_EE11_M_get_nodeEv
	movq	%rax, -8(%rbp)
	movq	24(%rbp), %rax
	movq	%rax, %rcx
	call	_ZSt7forwardIRKNSt7__cxx1112basic_stringIcSt11char_traitsIcESaIcEEEEOT_RNSt16remove_referenceIS8_E4typeE
	movq	%rax, %rdx
	movq	-8(%rbp), %rax
	movq	%rdx, %r8
	movq	%rax, %rdx
	movq	16(%rbp), %rcx
	call	_ZNSt8_Rb_treeINSt7__cxx1112basic_stringIcSt11char_traitsIcESaIcEEES5_St9_IdentityIS5_ESt4lessIS5_ESaIS5_EE17_M_construct_nodeIJRKS5_EEEvPSt13_Rb_tree_nodeIS5_EDpOT_
	movq	-8(%rbp), %rax
	addq	$48, %rsp
	popq	%rbp
	ret
	.seh_endproc
	.section	.text$_ZNKSt13_Rb_tree_nodeINSt7__cxx1112basic_stringIcSt11char_traitsIcESaIcEEEE9_M_valptrEv,"x"
	.linkonce discard
	.align 2
	.globl	_ZNKSt13_Rb_tree_nodeINSt7__cxx1112basic_stringIcSt11char_traitsIcESaIcEEEE9_M_valptrEv
	.def	_ZNKSt13_Rb_tree_nodeINSt7__cxx1112basic_stringIcSt11char_traitsIcESaIcEEEE9_M_valptrEv;	.scl	2;	.type	32;	.endef
	.seh_proc	_ZNKSt13_Rb_tree_nodeINSt7__cxx1112basic_stringIcSt11char_traitsIcESaIcEEEE9_M_valptrEv
_ZNKSt13_Rb_tree_nodeINSt7__cxx1112basic_stringIcSt11char_traitsIcESaIcEEEE9_M_valptrEv:
.LFB3032:
	pushq	%rbp
	.seh_pushreg	%rbp
	movq	%rsp, %rbp
	.seh_setframe	%rbp, 0
	subq	$32, %rsp
	.seh_stackalloc	32
	.seh_endprologue
	movq	%rcx, 16(%rbp)
	movq	16(%rbp), %rax
	addq	$32, %rax
	movq	%rax, %rcx
	call	_ZNK9__gnu_cxx16__aligned_membufINSt7__cxx1112basic_stringIcSt11char_traitsIcESaIcEEEE6_M_ptrEv
	addq	$32, %rsp
	popq	%rbp
	ret
	.seh_endproc
	.section	.text$_ZSt13__heap_selectIP13Keywords_rateN9__gnu_cxx5__ops15_Iter_less_iterEEvT_S5_S5_T0_,"x"
	.linkonce discard
	.globl	_ZSt13__heap_selectIP13Keywords_rateN9__gnu_cxx5__ops15_Iter_less_iterEEvT_S5_S5_T0_
	.def	_ZSt13__heap_selectIP13Keywords_rateN9__gnu_cxx5__ops15_Iter_less_iterEEvT_S5_S5_T0_;	.scl	2;	.type	32;	.endef
	.seh_proc	_ZSt13__heap_selectIP13Keywords_rateN9__gnu_cxx5__ops15_Iter_less_iterEEvT_S5_S5_T0_
_ZSt13__heap_selectIP13Keywords_rateN9__gnu_cxx5__ops15_Iter_less_iterEEvT_S5_S5_T0_:
.LFB3033:
	pushq	%rbp
	.seh_pushreg	%rbp
	pushq	%rbx
	.seh_pushreg	%rbx
	subq	$56, %rsp
	.seh_stackalloc	56
	leaq	128(%rsp), %rbp
	.seh_setframe	%rbp, 128
	.seh_endprologue
	movq	%rcx, -48(%rbp)
	movq	%rdx, -40(%rbp)
	movq	%r8, -32(%rbp)
	movb	%r9b, -24(%rbp)
	movq	-40(%rbp), %rax
	movl	%r10d, %r8d
	movq	%rax, %rdx
	movq	-48(%rbp), %rcx
	call	_ZSt11__make_heapIP13Keywords_rateN9__gnu_cxx5__ops15_Iter_less_iterEEvT_S5_T0_
	movq	-40(%rbp), %rax
	movq	%rax, -88(%rbp)
.L295:
	movq	-88(%rbp), %rax
	cmpq	-32(%rbp), %rax
	jnb	.L296
	movq	-88(%rbp), %rdx
	leaq	-24(%rbp), %rax
	movq	-48(%rbp), %r8
	movq	%rax, %rcx
	call	_ZNK9__gnu_cxx5__ops15_Iter_less_iterclIP13Keywords_rateS4_EEbT_T0_
	testb	%al, %al
	je	.L294
	movq	-88(%rbp), %rdx
	movq	-40(%rbp), %rax
	movl	%ebx, %r9d
	movq	%rdx, %r8
	movq	%rax, %rdx
	movq	-48(%rbp), %rcx
	call	_ZSt10__pop_heapIP13Keywords_rateN9__gnu_cxx5__ops15_Iter_less_iterEEvT_S5_S5_T0_
.L294:
	addq	$16, -88(%rbp)
	jmp	.L295
.L296:
	nop
	addq	$56, %rsp
	popq	%rbx
	popq	%rbp
	ret
	.seh_endproc
	.section	.text$_ZSt11__sort_heapIP13Keywords_rateN9__gnu_cxx5__ops15_Iter_less_iterEEvT_S5_T0_,"x"
	.linkonce discard
	.globl	_ZSt11__sort_heapIP13Keywords_rateN9__gnu_cxx5__ops15_Iter_less_iterEEvT_S5_T0_
	.def	_ZSt11__sort_heapIP13Keywords_rateN9__gnu_cxx5__ops15_Iter_less_iterEEvT_S5_T0_;	.scl	2;	.type	32;	.endef
	.seh_proc	_ZSt11__sort_heapIP13Keywords_rateN9__gnu_cxx5__ops15_Iter_less_iterEEvT_S5_T0_
_ZSt11__sort_heapIP13Keywords_rateN9__gnu_cxx5__ops15_Iter_less_iterEEvT_S5_T0_:
.LFB3034:
	pushq	%rbp
	.seh_pushreg	%rbp
	pushq	%rbx
	.seh_pushreg	%rbx
	subq	$40, %rsp
	.seh_stackalloc	40
	leaq	128(%rsp), %rbp
	.seh_setframe	%rbp, 128
	.seh_endprologue
	movq	%rcx, -64(%rbp)
	movq	%rdx, -56(%rbp)
	movb	%r8b, -48(%rbp)
.L299:
	movq	-56(%rbp), %rdx
	movq	-64(%rbp), %rax
	subq	%rax, %rdx
	movq	%rdx, %rax
	cmpq	$31, %rax
	jle	.L300
	subq	$16, -56(%rbp)
	movq	-56(%rbp), %rdx
	movq	-56(%rbp), %rax
	movl	%ebx, %r9d
	movq	%rdx, %r8
	movq	%rax, %rdx
	movq	-64(%rbp), %rcx
	call	_ZSt10__pop_heapIP13Keywords_rateN9__gnu_cxx5__ops15_Iter_less_iterEEvT_S5_S5_T0_
	jmp	.L299
.L300:
	nop
	addq	$40, %rsp
	popq	%rbx
	popq	%rbp
	ret
	.seh_endproc
	.section	.text$_ZSt22__move_median_to_firstIP13Keywords_rateN9__gnu_cxx5__ops15_Iter_less_iterEEvT_S5_S5_S5_T0_,"x"
	.linkonce discard
	.globl	_ZSt22__move_median_to_firstIP13Keywords_rateN9__gnu_cxx5__ops15_Iter_less_iterEEvT_S5_S5_S5_T0_
	.def	_ZSt22__move_median_to_firstIP13Keywords_rateN9__gnu_cxx5__ops15_Iter_less_iterEEvT_S5_S5_S5_T0_;	.scl	2;	.type	32;	.endef
	.seh_proc	_ZSt22__move_median_to_firstIP13Keywords_rateN9__gnu_cxx5__ops15_Iter_less_iterEEvT_S5_S5_S5_T0_
_ZSt22__move_median_to_firstIP13Keywords_rateN9__gnu_cxx5__ops15_Iter_less_iterEEvT_S5_S5_S5_T0_:
.LFB3035:
	pushq	%rbp
	.seh_pushreg	%rbp
	movq	%rsp, %rbp
	.seh_setframe	%rbp, 0
	subq	$32, %rsp
	.seh_stackalloc	32
	.seh_endprologue
	movq	%rcx, 16(%rbp)
	movq	%rdx, 24(%rbp)
	movq	%r8, 32(%rbp)
	movq	%r9, 40(%rbp)
	movq	32(%rbp), %rcx
	movq	24(%rbp), %rdx
	leaq	48(%rbp), %rax
	movq	%rcx, %r8
	movq	%rax, %rcx
	call	_ZNK9__gnu_cxx5__ops15_Iter_less_iterclIP13Keywords_rateS4_EEbT_T0_
	testb	%al, %al
	je	.L302
	movq	40(%rbp), %rcx
	movq	32(%rbp), %rdx
	leaq	48(%rbp), %rax
	movq	%rcx, %r8
	movq	%rax, %rcx
	call	_ZNK9__gnu_cxx5__ops15_Iter_less_iterclIP13Keywords_rateS4_EEbT_T0_
	testb	%al, %al
	je	.L303
	movq	32(%rbp), %rax
	movq	%rax, %rdx
	movq	16(%rbp), %rcx
	call	_ZSt9iter_swapIP13Keywords_rateS1_EvT_T0_
	jmp	.L309
.L303:
	movq	40(%rbp), %rcx
	movq	24(%rbp), %rdx
	leaq	48(%rbp), %rax
	movq	%rcx, %r8
	movq	%rax, %rcx
	call	_ZNK9__gnu_cxx5__ops15_Iter_less_iterclIP13Keywords_rateS4_EEbT_T0_
	testb	%al, %al
	je	.L305
	movq	40(%rbp), %rax
	movq	%rax, %rdx
	movq	16(%rbp), %rcx
	call	_ZSt9iter_swapIP13Keywords_rateS1_EvT_T0_
	jmp	.L309
.L305:
	movq	24(%rbp), %rax
	movq	%rax, %rdx
	movq	16(%rbp), %rcx
	call	_ZSt9iter_swapIP13Keywords_rateS1_EvT_T0_
	jmp	.L309
.L302:
	movq	40(%rbp), %rcx
	movq	24(%rbp), %rdx
	leaq	48(%rbp), %rax
	movq	%rcx, %r8
	movq	%rax, %rcx
	call	_ZNK9__gnu_cxx5__ops15_Iter_less_iterclIP13Keywords_rateS4_EEbT_T0_
	testb	%al, %al
	je	.L307
	movq	24(%rbp), %rax
	movq	%rax, %rdx
	movq	16(%rbp), %rcx
	call	_ZSt9iter_swapIP13Keywords_rateS1_EvT_T0_
	jmp	.L309
.L307:
	movq	40(%rbp), %rcx
	movq	32(%rbp), %rdx
	leaq	48(%rbp), %rax
	movq	%rcx, %r8
	movq	%rax, %rcx
	call	_ZNK9__gnu_cxx5__ops15_Iter_less_iterclIP13Keywords_rateS4_EEbT_T0_
	testb	%al, %al
	je	.L308
	movq	40(%rbp), %rax
	movq	%rax, %rdx
	movq	16(%rbp), %rcx
	call	_ZSt9iter_swapIP13Keywords_rateS1_EvT_T0_
	jmp	.L309
.L308:
	movq	32(%rbp), %rax
	movq	%rax, %rdx
	movq	16(%rbp), %rcx
	call	_ZSt9iter_swapIP13Keywords_rateS1_EvT_T0_
.L309:
	nop
	addq	$32, %rsp
	popq	%rbp
	ret
	.seh_endproc
	.section	.text$_ZSt21__unguarded_partitionIP13Keywords_rateN9__gnu_cxx5__ops15_Iter_less_iterEET_S5_S5_S5_T0_,"x"
	.linkonce discard
	.globl	_ZSt21__unguarded_partitionIP13Keywords_rateN9__gnu_cxx5__ops15_Iter_less_iterEET_S5_S5_S5_T0_
	.def	_ZSt21__unguarded_partitionIP13Keywords_rateN9__gnu_cxx5__ops15_Iter_less_iterEET_S5_S5_S5_T0_;	.scl	2;	.type	32;	.endef
	.seh_proc	_ZSt21__unguarded_partitionIP13Keywords_rateN9__gnu_cxx5__ops15_Iter_less_iterEET_S5_S5_S5_T0_
_ZSt21__unguarded_partitionIP13Keywords_rateN9__gnu_cxx5__ops15_Iter_less_iterEET_S5_S5_S5_T0_:
.LFB3036:
	pushq	%rbp
	.seh_pushreg	%rbp
	movq	%rsp, %rbp
	.seh_setframe	%rbp, 0
	subq	$32, %rsp
	.seh_stackalloc	32
	.seh_endprologue
	movq	%rcx, 16(%rbp)
	movq	%rdx, 24(%rbp)
	movq	%r8, 32(%rbp)
	movb	%r9b, 40(%rbp)
.L312:
	movq	32(%rbp), %rdx
	leaq	40(%rbp), %rax
	movq	%rdx, %r8
	movq	16(%rbp), %rdx
	movq	%rax, %rcx
	call	_ZNK9__gnu_cxx5__ops15_Iter_less_iterclIP13Keywords_rateS4_EEbT_T0_
	testb	%al, %al
	je	.L311
	addq	$16, 16(%rbp)
	jmp	.L312
.L311:
	subq	$16, 24(%rbp)
.L314:
	movq	24(%rbp), %rcx
	movq	32(%rbp), %rdx
	leaq	40(%rbp), %rax
	movq	%rcx, %r8
	movq	%rax, %rcx
	call	_ZNK9__gnu_cxx5__ops15_Iter_less_iterclIP13Keywords_rateS4_EEbT_T0_
	testb	%al, %al
	je	.L313
	subq	$16, 24(%rbp)
	jmp	.L314
.L313:
	movq	16(%rbp), %rax
	cmpq	24(%rbp), %rax
	jb	.L315
	movq	16(%rbp), %rax
	jmp	.L317
.L315:
	movq	24(%rbp), %rax
	movq	%rax, %rdx
	movq	16(%rbp), %rcx
	call	_ZSt9iter_swapIP13Keywords_rateS1_EvT_T0_
	addq	$16, 16(%rbp)
	jmp	.L312
.L317:
	addq	$32, %rsp
	popq	%rbp
	ret
	.seh_endproc
	.section	.text$_ZSt13move_backwardIP13Keywords_rateS1_ET0_T_S3_S2_,"x"
	.linkonce discard
	.globl	_ZSt13move_backwardIP13Keywords_rateS1_ET0_T_S3_S2_
	.def	_ZSt13move_backwardIP13Keywords_rateS1_ET0_T_S3_S2_;	.scl	2;	.type	32;	.endef
	.seh_proc	_ZSt13move_backwardIP13Keywords_rateS1_ET0_T_S3_S2_
_ZSt13move_backwardIP13Keywords_rateS1_ET0_T_S3_S2_:
.LFB3037:
	pushq	%rbp
	.seh_pushreg	%rbp
	pushq	%rbx
	.seh_pushreg	%rbx
	subq	$40, %rsp
	.seh_stackalloc	40
	leaq	128(%rsp), %rbp
	.seh_setframe	%rbp, 128
	.seh_endprologue
	movq	%rcx, -64(%rbp)
	movq	%rdx, -56(%rbp)
	movq	%r8, -48(%rbp)
	movq	-56(%rbp), %rax
	movq	%rax, %rcx
	call	_ZSt12__miter_baseIP13Keywords_rateET_S2_
	movq	%rax, %rbx
	movq	-64(%rbp), %rcx
	call	_ZSt12__miter_baseIP13Keywords_rateET_S2_
	movq	%rax, %rcx
	movq	-48(%rbp), %rax
	movq	%rax, %r8
	movq	%rbx, %rdx
	call	_ZSt23__copy_move_backward_a2ILb1EP13Keywords_rateS1_ET1_T0_S3_S2_
	addq	$40, %rsp
	popq	%rbx
	popq	%rbp
	ret
	.seh_endproc
	.section	.text$_ZSt25__unguarded_linear_insertIP13Keywords_rateN9__gnu_cxx5__ops14_Val_less_iterEEvT_T0_,"x"
	.linkonce discard
	.globl	_ZSt25__unguarded_linear_insertIP13Keywords_rateN9__gnu_cxx5__ops14_Val_less_iterEEvT_T0_
	.def	_ZSt25__unguarded_linear_insertIP13Keywords_rateN9__gnu_cxx5__ops14_Val_less_iterEEvT_T0_;	.scl	2;	.type	32;	.endef
	.seh_proc	_ZSt25__unguarded_linear_insertIP13Keywords_rateN9__gnu_cxx5__ops14_Val_less_iterEEvT_T0_
_ZSt25__unguarded_linear_insertIP13Keywords_rateN9__gnu_cxx5__ops14_Val_less_iterEEvT_T0_:
.LFB3038:
	pushq	%rbp
	.seh_pushreg	%rbp
	movq	%rsp, %rbp
	.seh_setframe	%rbp, 0
	subq	$64, %rsp
	.seh_stackalloc	64
	.seh_endprologue
	movq	%rcx, 16(%rbp)
	movb	%dl, 24(%rbp)
	movq	16(%rbp), %rcx
	call	_ZSt4moveIR13Keywords_rateEONSt16remove_referenceIT_E4typeEOS3_
	movq	8(%rax), %rdx
	movq	(%rax), %rax
	movq	%rax, -32(%rbp)
	movq	%rdx, -24(%rbp)
	movq	16(%rbp), %rax
	movq	%rax, -8(%rbp)
	subq	$16, -8(%rbp)
.L322:
	movq	-8(%rbp), %rcx
	leaq	-32(%rbp), %rdx
	leaq	24(%rbp), %rax
	movq	%rcx, %r8
	movq	%rax, %rcx
	call	_ZNK9__gnu_cxx5__ops14_Val_less_iterclI13Keywords_ratePS3_EEbRT_T0_
	testb	%al, %al
	je	.L321
	movq	-8(%rbp), %rax
	movq	%rax, %rcx
	call	_ZSt4moveIR13Keywords_rateEONSt16remove_referenceIT_E4typeEOS3_
	movq	16(%rbp), %rcx
	movq	8(%rax), %rdx
	movq	(%rax), %rax
	movq	%rax, (%rcx)
	movq	%rdx, 8(%rcx)
	movq	-8(%rbp), %rax
	movq	%rax, 16(%rbp)
	subq	$16, -8(%rbp)
	jmp	.L322
.L321:
	leaq	-32(%rbp), %rax
	movq	%rax, %rcx
	call	_ZSt4moveIR13Keywords_rateEONSt16remove_referenceIT_E4typeEOS3_
	movq	16(%rbp), %rcx
	movq	8(%rax), %rdx
	movq	(%rax), %rax
	movq	%rax, (%rcx)
	movq	%rdx, 8(%rcx)
	nop
	addq	$64, %rsp
	popq	%rbp
	ret
	.seh_endproc
	.section	.text$_ZNSt8_Rb_treeINSt7__cxx1112basic_stringIcSt11char_traitsIcESaIcEEES5_St9_IdentityIS5_ESt4lessIS5_ESaIS5_EE21_M_get_Node_allocatorEv,"x"
	.linkonce discard
	.align 2
	.globl	_ZNSt8_Rb_treeINSt7__cxx1112basic_stringIcSt11char_traitsIcESaIcEEES5_St9_IdentityIS5_ESt4lessIS5_ESaIS5_EE21_M_get_Node_allocatorEv
	.def	_ZNSt8_Rb_treeINSt7__cxx1112basic_stringIcSt11char_traitsIcESaIcEEES5_St9_IdentityIS5_ESt4lessIS5_ESaIS5_EE21_M_get_Node_allocatorEv;	.scl	2;	.type	32;	.endef
	.seh_proc	_ZNSt8_Rb_treeINSt7__cxx1112basic_stringIcSt11char_traitsIcESaIcEEES5_St9_IdentityIS5_ESt4lessIS5_ESaIS5_EE21_M_get_Node_allocatorEv
_ZNSt8_Rb_treeINSt7__cxx1112basic_stringIcSt11char_traitsIcESaIcEEES5_St9_IdentityIS5_ESt4lessIS5_ESaIS5_EE21_M_get_Node_allocatorEv:
.LFB3066:
	pushq	%rbp
	.seh_pushreg	%rbp
	movq	%rsp, %rbp
	.seh_setframe	%rbp, 0
	.seh_endprologue
	movq	%rcx, 16(%rbp)
	movq	16(%rbp), %rax
	popq	%rbp
	ret
	.seh_endproc
	.section	.text$_ZNSt13_Rb_tree_nodeINSt7__cxx1112basic_stringIcSt11char_traitsIcESaIcEEEE9_M_valptrEv,"x"
	.linkonce discard
	.align 2
	.globl	_ZNSt13_Rb_tree_nodeINSt7__cxx1112basic_stringIcSt11char_traitsIcESaIcEEEE9_M_valptrEv
	.def	_ZNSt13_Rb_tree_nodeINSt7__cxx1112basic_stringIcSt11char_traitsIcESaIcEEEE9_M_valptrEv;	.scl	2;	.type	32;	.endef
	.seh_proc	_ZNSt13_Rb_tree_nodeINSt7__cxx1112basic_stringIcSt11char_traitsIcESaIcEEEE9_M_valptrEv
_ZNSt13_Rb_tree_nodeINSt7__cxx1112basic_stringIcSt11char_traitsIcESaIcEEEE9_M_valptrEv:
.LFB3067:
	pushq	%rbp
	.seh_pushreg	%rbp
	movq	%rsp, %rbp
	.seh_setframe	%rbp, 0
	subq	$32, %rsp
	.seh_stackalloc	32
	.seh_endprologue
	movq	%rcx, 16(%rbp)
	movq	16(%rbp), %rax
	addq	$32, %rax
	movq	%rax, %rcx
	call	_ZN9__gnu_cxx16__aligned_membufINSt7__cxx1112basic_stringIcSt11char_traitsIcESaIcEEEE6_M_ptrEv
	addq	$32, %rsp
	popq	%rbp
	ret
	.seh_endproc
	.section	.text$_ZNSt16allocator_traitsISaISt13_Rb_tree_nodeINSt7__cxx1112basic_stringIcSt11char_traitsIcESaIcEEEEEE7destroyIS6_EEvRS8_PT_,"x"
	.linkonce discard
	.globl	_ZNSt16allocator_traitsISaISt13_Rb_tree_nodeINSt7__cxx1112basic_stringIcSt11char_traitsIcESaIcEEEEEE7destroyIS6_EEvRS8_PT_
	.def	_ZNSt16allocator_traitsISaISt13_Rb_tree_nodeINSt7__cxx1112basic_stringIcSt11char_traitsIcESaIcEEEEEE7destroyIS6_EEvRS8_PT_;	.scl	2;	.type	32;	.endef
	.seh_proc	_ZNSt16allocator_traitsISaISt13_Rb_tree_nodeINSt7__cxx1112basic_stringIcSt11char_traitsIcESaIcEEEEEE7destroyIS6_EEvRS8_PT_
_ZNSt16allocator_traitsISaISt13_Rb_tree_nodeINSt7__cxx1112basic_stringIcSt11char_traitsIcESaIcEEEEEE7destroyIS6_EEvRS8_PT_:
.LFB3068:
	pushq	%rbp
	.seh_pushreg	%rbp
	movq	%rsp, %rbp
	.seh_setframe	%rbp, 0
	subq	$32, %rsp
	.seh_stackalloc	32
	.seh_endprologue
	movq	%rcx, 16(%rbp)
	movq	%rdx, 24(%rbp)
	movq	24(%rbp), %rax
	movq	%rax, %rdx
	movq	16(%rbp), %rcx
	call	_ZN9__gnu_cxx13new_allocatorISt13_Rb_tree_nodeINSt7__cxx1112basic_stringIcSt11char_traitsIcESaIcEEEEE7destroyIS7_EEvPT_
	nop
	addq	$32, %rsp
	popq	%rbp
	ret
	.seh_endproc
	.section	.text$_ZNSt16allocator_traitsISaISt13_Rb_tree_nodeINSt7__cxx1112basic_stringIcSt11char_traitsIcESaIcEEEEEE10deallocateERS8_PS7_y,"x"
	.linkonce discard
	.globl	_ZNSt16allocator_traitsISaISt13_Rb_tree_nodeINSt7__cxx1112basic_stringIcSt11char_traitsIcESaIcEEEEEE10deallocateERS8_PS7_y
	.def	_ZNSt16allocator_traitsISaISt13_Rb_tree_nodeINSt7__cxx1112basic_stringIcSt11char_traitsIcESaIcEEEEEE10deallocateERS8_PS7_y;	.scl	2;	.type	32;	.endef
	.seh_proc	_ZNSt16allocator_traitsISaISt13_Rb_tree_nodeINSt7__cxx1112basic_stringIcSt11char_traitsIcESaIcEEEEEE10deallocateERS8_PS7_y
_ZNSt16allocator_traitsISaISt13_Rb_tree_nodeINSt7__cxx1112basic_stringIcSt11char_traitsIcESaIcEEEEEE10deallocateERS8_PS7_y:
.LFB3069:
	pushq	%rbp
	.seh_pushreg	%rbp
	movq	%rsp, %rbp
	.seh_setframe	%rbp, 0
	subq	$32, %rsp
	.seh_stackalloc	32
	.seh_endprologue
	movq	%rcx, 16(%rbp)
	movq	%rdx, 24(%rbp)
	movq	%r8, 32(%rbp)
	movq	32(%rbp), %rdx
	movq	24(%rbp), %rax
	movq	%rdx, %r8
	movq	%rax, %rdx
	movq	16(%rbp), %rcx
	call	_ZN9__gnu_cxx13new_allocatorISt13_Rb_tree_nodeINSt7__cxx1112basic_stringIcSt11char_traitsIcESaIcEEEEE10deallocateEPS8_y
	nop
	addq	$32, %rsp
	popq	%rbp
	ret
	.seh_endproc
	.section	.text$_ZNSt8_Rb_treeINSt7__cxx1112basic_stringIcSt11char_traitsIcESaIcEEES5_St9_IdentityIS5_ESt4lessIS5_ESaIS5_EE11_M_get_nodeEv,"x"
	.linkonce discard
	.align 2
	.globl	_ZNSt8_Rb_treeINSt7__cxx1112basic_stringIcSt11char_traitsIcESaIcEEES5_St9_IdentityIS5_ESt4lessIS5_ESaIS5_EE11_M_get_nodeEv
	.def	_ZNSt8_Rb_treeINSt7__cxx1112basic_stringIcSt11char_traitsIcESaIcEEES5_St9_IdentityIS5_ESt4lessIS5_ESaIS5_EE11_M_get_nodeEv;	.scl	2;	.type	32;	.endef
	.seh_proc	_ZNSt8_Rb_treeINSt7__cxx1112basic_stringIcSt11char_traitsIcESaIcEEES5_St9_IdentityIS5_ESt4lessIS5_ESaIS5_EE11_M_get_nodeEv
_ZNSt8_Rb_treeINSt7__cxx1112basic_stringIcSt11char_traitsIcESaIcEEES5_St9_IdentityIS5_ESt4lessIS5_ESaIS5_EE11_M_get_nodeEv:
.LFB3070:
	pushq	%rbp
	.seh_pushreg	%rbp
	movq	%rsp, %rbp
	.seh_setframe	%rbp, 0
	subq	$32, %rsp
	.seh_stackalloc	32
	.seh_endprologue
	movq	%rcx, 16(%rbp)
	movq	16(%rbp), %rcx
	call	_ZNSt8_Rb_treeINSt7__cxx1112basic_stringIcSt11char_traitsIcESaIcEEES5_St9_IdentityIS5_ESt4lessIS5_ESaIS5_EE21_M_get_Node_allocatorEv
	movl	$1, %edx
	movq	%rax, %rcx
	call	_ZNSt16allocator_traitsISaISt13_Rb_tree_nodeINSt7__cxx1112basic_stringIcSt11char_traitsIcESaIcEEEEEE8allocateERS8_y
	addq	$32, %rsp
	popq	%rbp
	ret
	.seh_endproc
	.section	.text$_ZNSt18_Rb_tree_node_baseC2Ev,"x"
	.linkonce discard
	.align 2
	.globl	_ZNSt18_Rb_tree_node_baseC2Ev
	.def	_ZNSt18_Rb_tree_node_baseC2Ev;	.scl	2;	.type	32;	.endef
	.seh_proc	_ZNSt18_Rb_tree_node_baseC2Ev
_ZNSt18_Rb_tree_node_baseC2Ev:
.LFB3074:
	pushq	%rbp
	.seh_pushreg	%rbp
	movq	%rsp, %rbp
	.seh_setframe	%rbp, 0
	.seh_endprologue
	movq	%rcx, 16(%rbp)
	nop
	popq	%rbp
	ret
	.seh_endproc
	.section	.text$_ZN9__gnu_cxx16__aligned_membufINSt7__cxx1112basic_stringIcSt11char_traitsIcESaIcEEEEC1Ev,"x"
	.linkonce discard
	.align 2
	.globl	_ZN9__gnu_cxx16__aligned_membufINSt7__cxx1112basic_stringIcSt11char_traitsIcESaIcEEEEC1Ev
	.def	_ZN9__gnu_cxx16__aligned_membufINSt7__cxx1112basic_stringIcSt11char_traitsIcESaIcEEEEC1Ev;	.scl	2;	.type	32;	.endef
	.seh_proc	_ZN9__gnu_cxx16__aligned_membufINSt7__cxx1112basic_stringIcSt11char_traitsIcESaIcEEEEC1Ev
_ZN9__gnu_cxx16__aligned_membufINSt7__cxx1112basic_stringIcSt11char_traitsIcESaIcEEEEC1Ev:
.LFB3078:
	pushq	%rbp
	.seh_pushreg	%rbp
	movq	%rsp, %rbp
	.seh_setframe	%rbp, 0
	.seh_endprologue
	movq	%rcx, 16(%rbp)
	nop
	popq	%rbp
	ret
	.seh_endproc
	.section	.text$_ZNSt13_Rb_tree_nodeINSt7__cxx1112basic_stringIcSt11char_traitsIcESaIcEEEEC1Ev,"x"
	.linkonce discard
	.align 2
	.globl	_ZNSt13_Rb_tree_nodeINSt7__cxx1112basic_stringIcSt11char_traitsIcESaIcEEEEC1Ev
	.def	_ZNSt13_Rb_tree_nodeINSt7__cxx1112basic_stringIcSt11char_traitsIcESaIcEEEEC1Ev;	.scl	2;	.type	32;	.endef
	.seh_proc	_ZNSt13_Rb_tree_nodeINSt7__cxx1112basic_stringIcSt11char_traitsIcESaIcEEEEC1Ev
_ZNSt13_Rb_tree_nodeINSt7__cxx1112basic_stringIcSt11char_traitsIcESaIcEEEEC1Ev:
.LFB3080:
	pushq	%rbp
	.seh_pushreg	%rbp
	movq	%rsp, %rbp
	.seh_setframe	%rbp, 0
	subq	$32, %rsp
	.seh_stackalloc	32
	.seh_endprologue
	movq	%rcx, 16(%rbp)
	movq	16(%rbp), %rax
	movq	%rax, %rcx
	call	_ZNSt18_Rb_tree_node_baseC2Ev
	movq	16(%rbp), %rax
	addq	$32, %rax
	movq	%rax, %rcx
	call	_ZN9__gnu_cxx16__aligned_membufINSt7__cxx1112basic_stringIcSt11char_traitsIcESaIcEEEEC1Ev
	nop
	addq	$32, %rsp
	popq	%rbp
	ret
	.seh_endproc
	.section	.text$_ZNSt8_Rb_treeINSt7__cxx1112basic_stringIcSt11char_traitsIcESaIcEEES5_St9_IdentityIS5_ESt4lessIS5_ESaIS5_EE17_M_construct_nodeIJRKS5_EEEvPSt13_Rb_tree_nodeIS5_EDpOT_,"x"
	.linkonce discard
	.align 2
	.globl	_ZNSt8_Rb_treeINSt7__cxx1112basic_stringIcSt11char_traitsIcESaIcEEES5_St9_IdentityIS5_ESt4lessIS5_ESaIS5_EE17_M_construct_nodeIJRKS5_EEEvPSt13_Rb_tree_nodeIS5_EDpOT_
	.def	_ZNSt8_Rb_treeINSt7__cxx1112basic_stringIcSt11char_traitsIcESaIcEEES5_St9_IdentityIS5_ESt4lessIS5_ESaIS5_EE17_M_construct_nodeIJRKS5_EEEvPSt13_Rb_tree_nodeIS5_EDpOT_;	.scl	2;	.type	32;	.endef
	.seh_proc	_ZNSt8_Rb_treeINSt7__cxx1112basic_stringIcSt11char_traitsIcESaIcEEES5_St9_IdentityIS5_ESt4lessIS5_ESaIS5_EE17_M_construct_nodeIJRKS5_EEEvPSt13_Rb_tree_nodeIS5_EDpOT_
_ZNSt8_Rb_treeINSt7__cxx1112basic_stringIcSt11char_traitsIcESaIcEEES5_St9_IdentityIS5_ESt4lessIS5_ESaIS5_EE17_M_construct_nodeIJRKS5_EEEvPSt13_Rb_tree_nodeIS5_EDpOT_:
.LFB3071:
	pushq	%rbp
	.seh_pushreg	%rbp
	pushq	%rsi
	.seh_pushreg	%rsi
	pushq	%rbx
	.seh_pushreg	%rbx
	movq	%rsp, %rbp
	.seh_setframe	%rbp, 0
	subq	$32, %rsp
	.seh_stackalloc	32
	.seh_endprologue
	movq	%rcx, 32(%rbp)
	movq	%rdx, 40(%rbp)
	movq	%r8, 48(%rbp)
	movq	40(%rbp), %rax
	movq	%rax, %rdx
	movl	$64, %ecx
	call	_ZnwyPv
	testq	%rax, %rax
	je	.L336
	movq	%rax, %rcx
	call	_ZNSt13_Rb_tree_nodeINSt7__cxx1112basic_stringIcSt11char_traitsIcESaIcEEEEC1Ev
.L336:
	movq	48(%rbp), %rax
	movq	%rax, %rcx
	call	_ZSt7forwardIRKNSt7__cxx1112basic_stringIcSt11char_traitsIcESaIcEEEEOT_RNSt16remove_referenceIS8_E4typeE
	movq	%rax, %rsi
	movq	40(%rbp), %rax
	movq	%rax, %rcx
	call	_ZNSt13_Rb_tree_nodeINSt7__cxx1112basic_stringIcSt11char_traitsIcESaIcEEEE9_M_valptrEv
	movq	%rax, %rbx
	movq	32(%rbp), %rcx
	call	_ZNSt8_Rb_treeINSt7__cxx1112basic_stringIcSt11char_traitsIcESaIcEEES5_St9_IdentityIS5_ESt4lessIS5_ESaIS5_EE21_M_get_Node_allocatorEv
	movq	%rsi, %r8
	movq	%rbx, %rdx
	movq	%rax, %rcx
.LEHB31:
	call	_ZNSt16allocator_traitsISaISt13_Rb_tree_nodeINSt7__cxx1112basic_stringIcSt11char_traitsIcESaIcEEEEEE9constructIS6_JRKS6_EEEvRS8_PT_DpOT0_
.LEHE31:
	jmp	.L341
.L339:
	movq	%rax, %rcx
	call	__cxa_begin_catch
	movq	40(%rbp), %rax
	movq	%rax, %rdx
	movq	32(%rbp), %rcx
	call	_ZNSt8_Rb_treeINSt7__cxx1112basic_stringIcSt11char_traitsIcESaIcEEES5_St9_IdentityIS5_ESt4lessIS5_ESaIS5_EE11_M_put_nodeEPSt13_Rb_tree_nodeIS5_E
.LEHB32:
	call	__cxa_rethrow
.LEHE32:
.L340:
	movq	%rax, %rbx
	call	__cxa_end_catch
	movq	%rbx, %rax
	movq	%rax, %rcx
.LEHB33:
	call	_Unwind_Resume
	nop
.LEHE33:
.L341:
	addq	$32, %rsp
	popq	%rbx
	popq	%rsi
	popq	%rbp
	ret
	.seh_handler	__gxx_personality_seh0, @unwind, @except
	.seh_handlerdata
	.align 4
.LLSDA3071:
	.byte	0xff
	.byte	0x9b
	.uleb128 .LLSDATT3071-.LLSDATTD3071
.LLSDATTD3071:
	.byte	0x1
	.uleb128 .LLSDACSE3071-.LLSDACSB3071
.LLSDACSB3071:
	.uleb128 .LEHB31-.LFB3071
	.uleb128 .LEHE31-.LEHB31
	.uleb128 .L339-.LFB3071
	.uleb128 0x1
	.uleb128 .LEHB32-.LFB3071
	.uleb128 .LEHE32-.LEHB32
	.uleb128 .L340-.LFB3071
	.uleb128 0
	.uleb128 .LEHB33-.LFB3071
	.uleb128 .LEHE33-.LEHB33
	.uleb128 0
	.uleb128 0
.LLSDACSE3071:
	.byte	0x1
	.byte	0
	.align 4
	.long	0

.LLSDATT3071:
	.section	.text$_ZNSt8_Rb_treeINSt7__cxx1112basic_stringIcSt11char_traitsIcESaIcEEES5_St9_IdentityIS5_ESt4lessIS5_ESaIS5_EE17_M_construct_nodeIJRKS5_EEEvPSt13_Rb_tree_nodeIS5_EDpOT_,"x"
	.linkonce discard
	.seh_endproc
	.section	.text$_ZNK9__gnu_cxx16__aligned_membufINSt7__cxx1112basic_stringIcSt11char_traitsIcESaIcEEEE6_M_ptrEv,"x"
	.linkonce discard
	.align 2
	.globl	_ZNK9__gnu_cxx16__aligned_membufINSt7__cxx1112basic_stringIcSt11char_traitsIcESaIcEEEE6_M_ptrEv
	.def	_ZNK9__gnu_cxx16__aligned_membufINSt7__cxx1112basic_stringIcSt11char_traitsIcESaIcEEEE6_M_ptrEv;	.scl	2;	.type	32;	.endef
	.seh_proc	_ZNK9__gnu_cxx16__aligned_membufINSt7__cxx1112basic_stringIcSt11char_traitsIcESaIcEEEE6_M_ptrEv
_ZNK9__gnu_cxx16__aligned_membufINSt7__cxx1112basic_stringIcSt11char_traitsIcESaIcEEEE6_M_ptrEv:
.LFB3081:
	pushq	%rbp
	.seh_pushreg	%rbp
	movq	%rsp, %rbp
	.seh_setframe	%rbp, 0
	subq	$32, %rsp
	.seh_stackalloc	32
	.seh_endprologue
	movq	%rcx, 16(%rbp)
	movq	16(%rbp), %rcx
	call	_ZNK9__gnu_cxx16__aligned_membufINSt7__cxx1112basic_stringIcSt11char_traitsIcESaIcEEEE7_M_addrEv
	addq	$32, %rsp
	popq	%rbp
	ret
	.seh_endproc
	.section	.text$_ZSt11__make_heapIP13Keywords_rateN9__gnu_cxx5__ops15_Iter_less_iterEEvT_S5_T0_,"x"
	.linkonce discard
	.globl	_ZSt11__make_heapIP13Keywords_rateN9__gnu_cxx5__ops15_Iter_less_iterEEvT_S5_T0_
	.def	_ZSt11__make_heapIP13Keywords_rateN9__gnu_cxx5__ops15_Iter_less_iterEEvT_S5_T0_;	.scl	2;	.type	32;	.endef
	.seh_proc	_ZSt11__make_heapIP13Keywords_rateN9__gnu_cxx5__ops15_Iter_less_iterEEvT_S5_T0_
_ZSt11__make_heapIP13Keywords_rateN9__gnu_cxx5__ops15_Iter_less_iterEEvT_S5_T0_:
.LFB3082:
	pushq	%rbp
	.seh_pushreg	%rbp
	pushq	%rbx
	.seh_pushreg	%rbx
	subq	$104, %rsp
	.seh_stackalloc	104
	leaq	128(%rsp), %rbp
	.seh_setframe	%rbp, 128
	.seh_endprologue
	movq	%rcx, 0(%rbp)
	movq	%rdx, 8(%rbp)
	movb	%r8b, 16(%rbp)
	movq	8(%rbp), %rdx
	movq	0(%rbp), %rax
	subq	%rax, %rdx
	movq	%rdx, %rax
	cmpq	$31, %rax
	jle	.L349
	movq	8(%rbp), %rdx
	movq	0(%rbp), %rax
	subq	%rax, %rdx
	movq	%rdx, %rax
	sarq	$4, %rax
	movq	%rax, -48(%rbp)
	movq	-48(%rbp), %rax
	subq	$2, %rax
	movq	%rax, %rdx
	shrq	$63, %rdx
	addq	%rdx, %rax
	sarq	%rax
	movq	%rax, -40(%rbp)
.L348:
	movq	-40(%rbp), %rax
	salq	$4, %rax
	movq	%rax, %rdx
	movq	0(%rbp), %rax
	addq	%rdx, %rax
	movq	%rax, %rcx
	call	_ZSt4moveIR13Keywords_rateEONSt16remove_referenceIT_E4typeEOS3_
	movq	8(%rax), %rdx
	movq	(%rax), %rax
	movq	%rax, -64(%rbp)
	movq	%rdx, -56(%rbp)
	leaq	-64(%rbp), %rax
	movq	%rax, %rcx
	call	_ZSt4moveIR13Keywords_rateEONSt16remove_referenceIT_E4typeEOS3_
	movq	8(%rax), %rdx
	movq	(%rax), %rax
	movq	%rax, -80(%rbp)
	movq	%rdx, -72(%rbp)
	leaq	-80(%rbp), %rcx
	movq	-48(%rbp), %rdx
	movq	-40(%rbp), %rax
	movb	%bl, 32(%rsp)
	movq	%rcx, %r9
	movq	%rdx, %r8
	movq	%rax, %rdx
	movq	0(%rbp), %rcx
	call	_ZSt13__adjust_heapIP13Keywords_ratexS0_N9__gnu_cxx5__ops15_Iter_less_iterEEvT_T0_S6_T1_T2_
	cmpq	$0, -40(%rbp)
	je	.L350
	subq	$1, -40(%rbp)
	jmp	.L348
.L349:
	nop
	jmp	.L344
.L350:
	nop
.L344:
	addq	$104, %rsp
	popq	%rbx
	popq	%rbp
	ret
	.seh_endproc
	.section	.text$_ZSt10__pop_heapIP13Keywords_rateN9__gnu_cxx5__ops15_Iter_less_iterEEvT_S5_S5_T0_,"x"
	.linkonce discard
	.globl	_ZSt10__pop_heapIP13Keywords_rateN9__gnu_cxx5__ops15_Iter_less_iterEEvT_S5_S5_T0_
	.def	_ZSt10__pop_heapIP13Keywords_rateN9__gnu_cxx5__ops15_Iter_less_iterEEvT_S5_S5_T0_;	.scl	2;	.type	32;	.endef
	.seh_proc	_ZSt10__pop_heapIP13Keywords_rateN9__gnu_cxx5__ops15_Iter_less_iterEEvT_S5_S5_T0_
_ZSt10__pop_heapIP13Keywords_rateN9__gnu_cxx5__ops15_Iter_less_iterEEvT_S5_S5_T0_:
.LFB3083:
	pushq	%rbp
	.seh_pushreg	%rbp
	pushq	%rbx
	.seh_pushreg	%rbx
	subq	$88, %rsp
	.seh_stackalloc	88
	leaq	128(%rsp), %rbp
	.seh_setframe	%rbp, 128
	.seh_endprologue
	movq	%rcx, -16(%rbp)
	movq	%rdx, -8(%rbp)
	movq	%r8, 0(%rbp)
	movb	%r9b, 8(%rbp)
	movq	0(%rbp), %rax
	movq	%rax, %rcx
	call	_ZSt4moveIR13Keywords_rateEONSt16remove_referenceIT_E4typeEOS3_
	movq	8(%rax), %rdx
	movq	(%rax), %rax
	movq	%rax, -64(%rbp)
	movq	%rdx, -56(%rbp)
	movq	-16(%rbp), %rcx
	call	_ZSt4moveIR13Keywords_rateEONSt16remove_referenceIT_E4typeEOS3_
	movq	0(%rbp), %rcx
	movq	8(%rax), %rdx
	movq	(%rax), %rax
	movq	%rax, (%rcx)
	movq	%rdx, 8(%rcx)
	leaq	-64(%rbp), %rax
	movq	%rax, %rcx
	call	_ZSt4moveIR13Keywords_rateEONSt16remove_referenceIT_E4typeEOS3_
	movq	%rax, %rcx
	movq	-8(%rbp), %rdx
	movq	-16(%rbp), %rax
	subq	%rax, %rdx
	movq	%rdx, %rax
	sarq	$4, %rax
	movq	%rax, %r8
	movq	(%rcx), %rax
	movq	8(%rcx), %rdx
	movq	%rax, -80(%rbp)
	movq	%rdx, -72(%rbp)
	leaq	-80(%rbp), %rax
	movb	%bl, 32(%rsp)
	movq	%rax, %r9
	movl	$0, %edx
	movq	-16(%rbp), %rcx
	call	_ZSt13__adjust_heapIP13Keywords_ratexS0_N9__gnu_cxx5__ops15_Iter_less_iterEEvT_T0_S6_T1_T2_
	nop
	addq	$88, %rsp
	popq	%rbx
	popq	%rbp
	ret
	.seh_endproc
	.section	.text$_ZSt9iter_swapIP13Keywords_rateS1_EvT_T0_,"x"
	.linkonce discard
	.globl	_ZSt9iter_swapIP13Keywords_rateS1_EvT_T0_
	.def	_ZSt9iter_swapIP13Keywords_rateS1_EvT_T0_;	.scl	2;	.type	32;	.endef
	.seh_proc	_ZSt9iter_swapIP13Keywords_rateS1_EvT_T0_
_ZSt9iter_swapIP13Keywords_rateS1_EvT_T0_:
.LFB3084:
	pushq	%rbp
	.seh_pushreg	%rbp
	movq	%rsp, %rbp
	.seh_setframe	%rbp, 0
	subq	$32, %rsp
	.seh_stackalloc	32
	.seh_endprologue
	movq	%rcx, 16(%rbp)
	movq	%rdx, 24(%rbp)
	movq	24(%rbp), %rax
	movq	%rax, %rdx
	movq	16(%rbp), %rcx
	call	_ZSt4swapI13Keywords_rateENSt9enable_ifIXsrSt6__and_IJSt21is_move_constructibleIT_ESt18is_move_assignableIS4_EEE5valueEvE4typeERS4_SB_
	nop
	addq	$32, %rsp
	popq	%rbp
	ret
	.seh_endproc
	.section	.text$_ZSt12__miter_baseIP13Keywords_rateET_S2_,"x"
	.linkonce discard
	.globl	_ZSt12__miter_baseIP13Keywords_rateET_S2_
	.def	_ZSt12__miter_baseIP13Keywords_rateET_S2_;	.scl	2;	.type	32;	.endef
	.seh_proc	_ZSt12__miter_baseIP13Keywords_rateET_S2_
_ZSt12__miter_baseIP13Keywords_rateET_S2_:
.LFB3085:
	pushq	%rbp
	.seh_pushreg	%rbp
	movq	%rsp, %rbp
	.seh_setframe	%rbp, 0
	.seh_endprologue
	movq	%rcx, 16(%rbp)
	movq	16(%rbp), %rax
	popq	%rbp
	ret
	.seh_endproc
	.section	.text$_ZSt23__copy_move_backward_a2ILb1EP13Keywords_rateS1_ET1_T0_S3_S2_,"x"
	.linkonce discard
	.globl	_ZSt23__copy_move_backward_a2ILb1EP13Keywords_rateS1_ET1_T0_S3_S2_
	.def	_ZSt23__copy_move_backward_a2ILb1EP13Keywords_rateS1_ET1_T0_S3_S2_;	.scl	2;	.type	32;	.endef
	.seh_proc	_ZSt23__copy_move_backward_a2ILb1EP13Keywords_rateS1_ET1_T0_S3_S2_
_ZSt23__copy_move_backward_a2ILb1EP13Keywords_rateS1_ET1_T0_S3_S2_:
.LFB3086:
	pushq	%rbp
	.seh_pushreg	%rbp
	pushq	%rsi
	.seh_pushreg	%rsi
	pushq	%rbx
	.seh_pushreg	%rbx
	movq	%rsp, %rbp
	.seh_setframe	%rbp, 0
	subq	$32, %rsp
	.seh_stackalloc	32
	.seh_endprologue
	movq	%rcx, 32(%rbp)
	movq	%rdx, 40(%rbp)
	movq	%r8, 48(%rbp)
	movq	48(%rbp), %rax
	movq	%rax, %rcx
	call	_ZSt12__niter_baseIP13Keywords_rateET_S2_
	movq	%rax, %rsi
	movq	40(%rbp), %rax
	movq	%rax, %rcx
	call	_ZSt12__niter_baseIP13Keywords_rateET_S2_
	movq	%rax, %rbx
	movq	32(%rbp), %rcx
	call	_ZSt12__niter_baseIP13Keywords_rateET_S2_
	movq	%rsi, %r8
	movq	%rbx, %rdx
	movq	%rax, %rcx
	call	_ZSt22__copy_move_backward_aILb1EP13Keywords_rateS1_ET1_T0_S3_S2_
	addq	$32, %rsp
	popq	%rbx
	popq	%rsi
	popq	%rbp
	ret
	.seh_endproc
	.section	.text$_ZNK9__gnu_cxx5__ops14_Val_less_iterclI13Keywords_ratePS3_EEbRT_T0_,"x"
	.linkonce discard
	.align 2
	.globl	_ZNK9__gnu_cxx5__ops14_Val_less_iterclI13Keywords_ratePS3_EEbRT_T0_
	.def	_ZNK9__gnu_cxx5__ops14_Val_less_iterclI13Keywords_ratePS3_EEbRT_T0_;	.scl	2;	.type	32;	.endef
	.seh_proc	_ZNK9__gnu_cxx5__ops14_Val_less_iterclI13Keywords_ratePS3_EEbRT_T0_
_ZNK9__gnu_cxx5__ops14_Val_less_iterclI13Keywords_ratePS3_EEbRT_T0_:
.LFB3087:
	pushq	%rbp
	.seh_pushreg	%rbp
	movq	%rsp, %rbp
	.seh_setframe	%rbp, 0
	subq	$32, %rsp
	.seh_stackalloc	32
	.seh_endprologue
	movq	%rcx, 16(%rbp)
	movq	%rdx, 24(%rbp)
	movq	%r8, 32(%rbp)
	movq	32(%rbp), %rdx
	movq	24(%rbp), %rax
	movq	%rax, %rcx
	call	_ZN13Keywords_rateltERKS_
	addq	$32, %rsp
	popq	%rbp
	ret
	.seh_endproc
	.section	.text$_ZN9__gnu_cxx16__aligned_membufINSt7__cxx1112basic_stringIcSt11char_traitsIcESaIcEEEE6_M_ptrEv,"x"
	.linkonce discard
	.align 2
	.globl	_ZN9__gnu_cxx16__aligned_membufINSt7__cxx1112basic_stringIcSt11char_traitsIcESaIcEEEE6_M_ptrEv
	.def	_ZN9__gnu_cxx16__aligned_membufINSt7__cxx1112basic_stringIcSt11char_traitsIcESaIcEEEE6_M_ptrEv;	.scl	2;	.type	32;	.endef
	.seh_proc	_ZN9__gnu_cxx16__aligned_membufINSt7__cxx1112basic_stringIcSt11char_traitsIcESaIcEEEE6_M_ptrEv
_ZN9__gnu_cxx16__aligned_membufINSt7__cxx1112basic_stringIcSt11char_traitsIcESaIcEEEE6_M_ptrEv:
.LFB3098:
	pushq	%rbp
	.seh_pushreg	%rbp
	movq	%rsp, %rbp
	.seh_setframe	%rbp, 0
	subq	$32, %rsp
	.seh_stackalloc	32
	.seh_endprologue
	movq	%rcx, 16(%rbp)
	movq	16(%rbp), %rcx
	call	_ZN9__gnu_cxx16__aligned_membufINSt7__cxx1112basic_stringIcSt11char_traitsIcESaIcEEEE7_M_addrEv
	addq	$32, %rsp
	popq	%rbp
	ret
	.seh_endproc
	.section	.text$_ZN9__gnu_cxx13new_allocatorISt13_Rb_tree_nodeINSt7__cxx1112basic_stringIcSt11char_traitsIcESaIcEEEEE7destroyIS7_EEvPT_,"x"
	.linkonce discard
	.align 2
	.globl	_ZN9__gnu_cxx13new_allocatorISt13_Rb_tree_nodeINSt7__cxx1112basic_stringIcSt11char_traitsIcESaIcEEEEE7destroyIS7_EEvPT_
	.def	_ZN9__gnu_cxx13new_allocatorISt13_Rb_tree_nodeINSt7__cxx1112basic_stringIcSt11char_traitsIcESaIcEEEEE7destroyIS7_EEvPT_;	.scl	2;	.type	32;	.endef
	.seh_proc	_ZN9__gnu_cxx13new_allocatorISt13_Rb_tree_nodeINSt7__cxx1112basic_stringIcSt11char_traitsIcESaIcEEEEE7destroyIS7_EEvPT_
_ZN9__gnu_cxx13new_allocatorISt13_Rb_tree_nodeINSt7__cxx1112basic_stringIcSt11char_traitsIcESaIcEEEEE7destroyIS7_EEvPT_:
.LFB3099:
	pushq	%rbp
	.seh_pushreg	%rbp
	movq	%rsp, %rbp
	.seh_setframe	%rbp, 0
	subq	$32, %rsp
	.seh_stackalloc	32
	.seh_endprologue
	movq	%rcx, 16(%rbp)
	movq	%rdx, 24(%rbp)
	movq	24(%rbp), %rax
	movq	%rax, %rcx
	call	_ZNSt7__cxx1112basic_stringIcSt11char_traitsIcESaIcEED1Ev
	nop
	addq	$32, %rsp
	popq	%rbp
	ret
	.seh_endproc
	.section	.text$_ZN9__gnu_cxx13new_allocatorISt13_Rb_tree_nodeINSt7__cxx1112basic_stringIcSt11char_traitsIcESaIcEEEEE10deallocateEPS8_y,"x"
	.linkonce discard
	.align 2
	.globl	_ZN9__gnu_cxx13new_allocatorISt13_Rb_tree_nodeINSt7__cxx1112basic_stringIcSt11char_traitsIcESaIcEEEEE10deallocateEPS8_y
	.def	_ZN9__gnu_cxx13new_allocatorISt13_Rb_tree_nodeINSt7__cxx1112basic_stringIcSt11char_traitsIcESaIcEEEEE10deallocateEPS8_y;	.scl	2;	.type	32;	.endef
	.seh_proc	_ZN9__gnu_cxx13new_allocatorISt13_Rb_tree_nodeINSt7__cxx1112basic_stringIcSt11char_traitsIcESaIcEEEEE10deallocateEPS8_y
_ZN9__gnu_cxx13new_allocatorISt13_Rb_tree_nodeINSt7__cxx1112basic_stringIcSt11char_traitsIcESaIcEEEEE10deallocateEPS8_y:
.LFB3100:
	pushq	%rbp
	.seh_pushreg	%rbp
	movq	%rsp, %rbp
	.seh_setframe	%rbp, 0
	subq	$32, %rsp
	.seh_stackalloc	32
	.seh_endprologue
	movq	%rcx, 16(%rbp)
	movq	%rdx, 24(%rbp)
	movq	%r8, 32(%rbp)
	movq	24(%rbp), %rax
	movq	%rax, %rcx
	call	_ZdlPv
	nop
	addq	$32, %rsp
	popq	%rbp
	ret
	.seh_endproc
	.section	.text$_ZNSt16allocator_traitsISaISt13_Rb_tree_nodeINSt7__cxx1112basic_stringIcSt11char_traitsIcESaIcEEEEEE8allocateERS8_y,"x"
	.linkonce discard
	.globl	_ZNSt16allocator_traitsISaISt13_Rb_tree_nodeINSt7__cxx1112basic_stringIcSt11char_traitsIcESaIcEEEEEE8allocateERS8_y
	.def	_ZNSt16allocator_traitsISaISt13_Rb_tree_nodeINSt7__cxx1112basic_stringIcSt11char_traitsIcESaIcEEEEEE8allocateERS8_y;	.scl	2;	.type	32;	.endef
	.seh_proc	_ZNSt16allocator_traitsISaISt13_Rb_tree_nodeINSt7__cxx1112basic_stringIcSt11char_traitsIcESaIcEEEEEE8allocateERS8_y
_ZNSt16allocator_traitsISaISt13_Rb_tree_nodeINSt7__cxx1112basic_stringIcSt11char_traitsIcESaIcEEEEEE8allocateERS8_y:
.LFB3101:
	pushq	%rbp
	.seh_pushreg	%rbp
	movq	%rsp, %rbp
	.seh_setframe	%rbp, 0
	subq	$32, %rsp
	.seh_stackalloc	32
	.seh_endprologue
	movq	%rcx, 16(%rbp)
	movq	%rdx, 24(%rbp)
	movq	24(%rbp), %rax
	movl	$0, %r8d
	movq	%rax, %rdx
	movq	16(%rbp), %rcx
	call	_ZN9__gnu_cxx13new_allocatorISt13_Rb_tree_nodeINSt7__cxx1112basic_stringIcSt11char_traitsIcESaIcEEEEE8allocateEyPKv
	addq	$32, %rsp
	popq	%rbp
	ret
	.seh_endproc
	.section	.text$_ZNSt16allocator_traitsISaISt13_Rb_tree_nodeINSt7__cxx1112basic_stringIcSt11char_traitsIcESaIcEEEEEE9constructIS6_JRKS6_EEEvRS8_PT_DpOT0_,"x"
	.linkonce discard
	.globl	_ZNSt16allocator_traitsISaISt13_Rb_tree_nodeINSt7__cxx1112basic_stringIcSt11char_traitsIcESaIcEEEEEE9constructIS6_JRKS6_EEEvRS8_PT_DpOT0_
	.def	_ZNSt16allocator_traitsISaISt13_Rb_tree_nodeINSt7__cxx1112basic_stringIcSt11char_traitsIcESaIcEEEEEE9constructIS6_JRKS6_EEEvRS8_PT_DpOT0_;	.scl	2;	.type	32;	.endef
	.seh_proc	_ZNSt16allocator_traitsISaISt13_Rb_tree_nodeINSt7__cxx1112basic_stringIcSt11char_traitsIcESaIcEEEEEE9constructIS6_JRKS6_EEEvRS8_PT_DpOT0_
_ZNSt16allocator_traitsISaISt13_Rb_tree_nodeINSt7__cxx1112basic_stringIcSt11char_traitsIcESaIcEEEEEE9constructIS6_JRKS6_EEEvRS8_PT_DpOT0_:
.LFB3102:
	pushq	%rbp
	.seh_pushreg	%rbp
	movq	%rsp, %rbp
	.seh_setframe	%rbp, 0
	subq	$32, %rsp
	.seh_stackalloc	32
	.seh_endprologue
	movq	%rcx, 16(%rbp)
	movq	%rdx, 24(%rbp)
	movq	%r8, 32(%rbp)
	movq	32(%rbp), %rax
	movq	%rax, %rcx
	call	_ZSt7forwardIRKNSt7__cxx1112basic_stringIcSt11char_traitsIcESaIcEEEEOT_RNSt16remove_referenceIS8_E4typeE
	movq	%rax, %rdx
	movq	24(%rbp), %rax
	movq	%rdx, %r8
	movq	%rax, %rdx
	movq	16(%rbp), %rcx
	call	_ZN9__gnu_cxx13new_allocatorISt13_Rb_tree_nodeINSt7__cxx1112basic_stringIcSt11char_traitsIcESaIcEEEEE9constructIS7_JRKS7_EEEvPT_DpOT0_
	nop
	addq	$32, %rsp
	popq	%rbp
	ret
	.seh_endproc
	.section	.text$_ZNK9__gnu_cxx16__aligned_membufINSt7__cxx1112basic_stringIcSt11char_traitsIcESaIcEEEE7_M_addrEv,"x"
	.linkonce discard
	.align 2
	.globl	_ZNK9__gnu_cxx16__aligned_membufINSt7__cxx1112basic_stringIcSt11char_traitsIcESaIcEEEE7_M_addrEv
	.def	_ZNK9__gnu_cxx16__aligned_membufINSt7__cxx1112basic_stringIcSt11char_traitsIcESaIcEEEE7_M_addrEv;	.scl	2;	.type	32;	.endef
	.seh_proc	_ZNK9__gnu_cxx16__aligned_membufINSt7__cxx1112basic_stringIcSt11char_traitsIcESaIcEEEE7_M_addrEv
_ZNK9__gnu_cxx16__aligned_membufINSt7__cxx1112basic_stringIcSt11char_traitsIcESaIcEEEE7_M_addrEv:
.LFB3103:
	pushq	%rbp
	.seh_pushreg	%rbp
	movq	%rsp, %rbp
	.seh_setframe	%rbp, 0
	.seh_endprologue
	movq	%rcx, 16(%rbp)
	movq	16(%rbp), %rax
	popq	%rbp
	ret
	.seh_endproc
	.section	.text$_ZSt13__adjust_heapIP13Keywords_ratexS0_N9__gnu_cxx5__ops15_Iter_less_iterEEvT_T0_S6_T1_T2_,"x"
	.linkonce discard
	.globl	_ZSt13__adjust_heapIP13Keywords_ratexS0_N9__gnu_cxx5__ops15_Iter_less_iterEEvT_T0_S6_T1_T2_
	.def	_ZSt13__adjust_heapIP13Keywords_ratexS0_N9__gnu_cxx5__ops15_Iter_less_iterEEvT_T0_S6_T1_T2_;	.scl	2;	.type	32;	.endef
	.seh_proc	_ZSt13__adjust_heapIP13Keywords_ratexS0_N9__gnu_cxx5__ops15_Iter_less_iterEEvT_T0_S6_T1_T2_
_ZSt13__adjust_heapIP13Keywords_ratexS0_N9__gnu_cxx5__ops15_Iter_less_iterEEvT_T0_S6_T1_T2_:
.LFB3104:
	pushq	%rbp
	.seh_pushreg	%rbp
	pushq	%rdi
	.seh_pushreg	%rdi
	pushq	%rsi
	.seh_pushreg	%rsi
	pushq	%rbx
	.seh_pushreg	%rbx
	subq	$120, %rsp
	.seh_stackalloc	120
	leaq	128(%rsp), %rbp
	.seh_setframe	%rbp, 128
	.seh_endprologue
	movq	%rcx, 32(%rbp)
	movq	%rdx, 40(%rbp)
	movq	%r8, 48(%rbp)
	movq	%r9, %rbx
	movq	(%rbx), %rax
	movq	8(%rbx), %rdx
	movq	%rax, -64(%rbp)
	movq	%rdx, -56(%rbp)
	movq	40(%rbp), %rax
	movq	%rax, -32(%rbp)
	movq	40(%rbp), %rax
	movq	%rax, -24(%rbp)
.L371:
	movq	48(%rbp), %rax
	subq	$1, %rax
	movq	%rax, %rdx
	shrq	$63, %rdx
	addq	%rdx, %rax
	sarq	%rax
	cmpq	-24(%rbp), %rax
	jle	.L369
	movq	-24(%rbp), %rax
	addq	$1, %rax
	addq	%rax, %rax
	movq	%rax, -24(%rbp)
	movq	-24(%rbp), %rax
	salq	$4, %rax
	leaq	-16(%rax), %rdx
	movq	32(%rbp), %rax
	leaq	(%rdx,%rax), %rcx
	movq	-24(%rbp), %rax
	salq	$4, %rax
	movq	%rax, %rdx
	movq	32(%rbp), %rax
	addq	%rax, %rdx
	leaq	64(%rbp), %rax
	movq	%rcx, %r8
	movq	%rax, %rcx
	call	_ZNK9__gnu_cxx5__ops15_Iter_less_iterclIP13Keywords_rateS4_EEbT_T0_
	testb	%al, %al
	je	.L370
	subq	$1, -24(%rbp)
.L370:
	movq	40(%rbp), %rax
	salq	$4, %rax
	movq	%rax, %rdx
	movq	32(%rbp), %rax
	leaq	(%rdx,%rax), %rbx
	movq	-24(%rbp), %rax
	salq	$4, %rax
	movq	%rax, %rdx
	movq	32(%rbp), %rax
	addq	%rdx, %rax
	movq	%rax, %rcx
	call	_ZSt4moveIR13Keywords_rateEONSt16remove_referenceIT_E4typeEOS3_
	movq	8(%rax), %rdx
	movq	(%rax), %rax
	movq	%rax, (%rbx)
	movq	%rdx, 8(%rbx)
	movq	-24(%rbp), %rax
	movq	%rax, 40(%rbp)
	jmp	.L371
.L369:
	movq	48(%rbp), %rax
	andl	$1, %eax
	testq	%rax, %rax
	jne	.L372
	movq	48(%rbp), %rax
	subq	$2, %rax
	movq	%rax, %rdx
	shrq	$63, %rdx
	addq	%rdx, %rax
	sarq	%rax
	cmpq	-24(%rbp), %rax
	jne	.L372
	movq	-24(%rbp), %rax
	addq	$1, %rax
	addq	%rax, %rax
	movq	%rax, -24(%rbp)
	movq	40(%rbp), %rax
	salq	$4, %rax
	movq	%rax, %rdx
	movq	32(%rbp), %rax
	leaq	(%rdx,%rax), %rbx
	movq	-24(%rbp), %rax
	salq	$4, %rax
	leaq	-16(%rax), %rdx
	movq	32(%rbp), %rax
	addq	%rdx, %rax
	movq	%rax, %rcx
	call	_ZSt4moveIR13Keywords_rateEONSt16remove_referenceIT_E4typeEOS3_
	movq	8(%rax), %rdx
	movq	(%rax), %rax
	movq	%rax, (%rbx)
	movq	%rdx, 8(%rbx)
	movq	-24(%rbp), %rax
	subq	$1, %rax
	movq	%rax, 40(%rbp)
.L372:
	movl	%edi, %ecx
	call	_ZN9__gnu_cxx5__ops15__iter_comp_valENS0_15_Iter_less_iterE
	leaq	-64(%rbp), %rax
	movq	%rax, %rcx
	call	_ZSt4moveIR13Keywords_rateEONSt16remove_referenceIT_E4typeEOS3_
	movq	8(%rax), %rdx
	movq	(%rax), %rax
	movq	%rax, -80(%rbp)
	movq	%rdx, -72(%rbp)
	leaq	-80(%rbp), %rcx
	movq	-32(%rbp), %rdx
	movq	40(%rbp), %rax
	movb	%sil, 32(%rsp)
	movq	%rcx, %r9
	movq	%rdx, %r8
	movq	%rax, %rdx
	movq	32(%rbp), %rcx
	call	_ZSt11__push_heapIP13Keywords_ratexS0_N9__gnu_cxx5__ops14_Iter_less_valEEvT_T0_S6_T1_T2_
	nop
	addq	$120, %rsp
	popq	%rbx
	popq	%rsi
	popq	%rdi
	popq	%rbp
	ret
	.seh_endproc
	.section	.text$_ZSt4swapI13Keywords_rateENSt9enable_ifIXsrSt6__and_IJSt21is_move_constructibleIT_ESt18is_move_assignableIS4_EEE5valueEvE4typeERS4_SB_,"x"
	.linkonce discard
	.globl	_ZSt4swapI13Keywords_rateENSt9enable_ifIXsrSt6__and_IJSt21is_move_constructibleIT_ESt18is_move_assignableIS4_EEE5valueEvE4typeERS4_SB_
	.def	_ZSt4swapI13Keywords_rateENSt9enable_ifIXsrSt6__and_IJSt21is_move_constructibleIT_ESt18is_move_assignableIS4_EEE5valueEvE4typeERS4_SB_;	.scl	2;	.type	32;	.endef
	.seh_proc	_ZSt4swapI13Keywords_rateENSt9enable_ifIXsrSt6__and_IJSt21is_move_constructibleIT_ESt18is_move_assignableIS4_EEE5valueEvE4typeERS4_SB_
_ZSt4swapI13Keywords_rateENSt9enable_ifIXsrSt6__and_IJSt21is_move_constructibleIT_ESt18is_move_assignableIS4_EEE5valueEvE4typeERS4_SB_:
.LFB3105:
	pushq	%rbp
	.seh_pushreg	%rbp
	movq	%rsp, %rbp
	.seh_setframe	%rbp, 0
	subq	$48, %rsp
	.seh_stackalloc	48
	.seh_endprologue
	movq	%rcx, 16(%rbp)
	movq	%rdx, 24(%rbp)
	movq	16(%rbp), %rcx
	call	_ZSt4moveIR13Keywords_rateEONSt16remove_referenceIT_E4typeEOS3_
	movq	8(%rax), %rdx
	movq	(%rax), %rax
	movq	%rax, -16(%rbp)
	movq	%rdx, -8(%rbp)
	movq	24(%rbp), %rax
	movq	%rax, %rcx
	call	_ZSt4moveIR13Keywords_rateEONSt16remove_referenceIT_E4typeEOS3_
	movq	16(%rbp), %rcx
	movq	8(%rax), %rdx
	movq	(%rax), %rax
	movq	%rax, (%rcx)
	movq	%rdx, 8(%rcx)
	leaq	-16(%rbp), %rax
	movq	%rax, %rcx
	call	_ZSt4moveIR13Keywords_rateEONSt16remove_referenceIT_E4typeEOS3_
	movq	24(%rbp), %rcx
	movq	8(%rax), %rdx
	movq	(%rax), %rax
	movq	%rax, (%rcx)
	movq	%rdx, 8(%rcx)
	nop
	addq	$48, %rsp
	popq	%rbp
	ret
	.seh_endproc
	.section	.text$_ZSt12__niter_baseIP13Keywords_rateET_S2_,"x"
	.linkonce discard
	.globl	_ZSt12__niter_baseIP13Keywords_rateET_S2_
	.def	_ZSt12__niter_baseIP13Keywords_rateET_S2_;	.scl	2;	.type	32;	.endef
	.seh_proc	_ZSt12__niter_baseIP13Keywords_rateET_S2_
_ZSt12__niter_baseIP13Keywords_rateET_S2_:
.LFB3106:
	pushq	%rbp
	.seh_pushreg	%rbp
	movq	%rsp, %rbp
	.seh_setframe	%rbp, 0
	.seh_endprologue
	movq	%rcx, 16(%rbp)
	movq	16(%rbp), %rax
	popq	%rbp
	ret
	.seh_endproc
	.section	.text$_ZSt22__copy_move_backward_aILb1EP13Keywords_rateS1_ET1_T0_S3_S2_,"x"
	.linkonce discard
	.globl	_ZSt22__copy_move_backward_aILb1EP13Keywords_rateS1_ET1_T0_S3_S2_
	.def	_ZSt22__copy_move_backward_aILb1EP13Keywords_rateS1_ET1_T0_S3_S2_;	.scl	2;	.type	32;	.endef
	.seh_proc	_ZSt22__copy_move_backward_aILb1EP13Keywords_rateS1_ET1_T0_S3_S2_
_ZSt22__copy_move_backward_aILb1EP13Keywords_rateS1_ET1_T0_S3_S2_:
.LFB3107:
	pushq	%rbp
	.seh_pushreg	%rbp
	movq	%rsp, %rbp
	.seh_setframe	%rbp, 0
	subq	$48, %rsp
	.seh_stackalloc	48
	.seh_endprologue
	movq	%rcx, 16(%rbp)
	movq	%rdx, 24(%rbp)
	movq	%r8, 32(%rbp)
	movb	$1, -1(%rbp)
	movq	32(%rbp), %rdx
	movq	24(%rbp), %rax
	movq	%rdx, %r8
	movq	%rax, %rdx
	movq	16(%rbp), %rcx
	call	_ZNSt20__copy_move_backwardILb1ELb1ESt26random_access_iterator_tagE13__copy_move_bI13Keywords_rateEEPT_PKS4_S7_S5_
	addq	$48, %rsp
	popq	%rbp
	ret
	.seh_endproc
	.section	.text$_ZN9__gnu_cxx16__aligned_membufINSt7__cxx1112basic_stringIcSt11char_traitsIcESaIcEEEE7_M_addrEv,"x"
	.linkonce discard
	.align 2
	.globl	_ZN9__gnu_cxx16__aligned_membufINSt7__cxx1112basic_stringIcSt11char_traitsIcESaIcEEEE7_M_addrEv
	.def	_ZN9__gnu_cxx16__aligned_membufINSt7__cxx1112basic_stringIcSt11char_traitsIcESaIcEEEE7_M_addrEv;	.scl	2;	.type	32;	.endef
	.seh_proc	_ZN9__gnu_cxx16__aligned_membufINSt7__cxx1112basic_stringIcSt11char_traitsIcESaIcEEEE7_M_addrEv
_ZN9__gnu_cxx16__aligned_membufINSt7__cxx1112basic_stringIcSt11char_traitsIcESaIcEEEE7_M_addrEv:
.LFB3110:
	pushq	%rbp
	.seh_pushreg	%rbp
	movq	%rsp, %rbp
	.seh_setframe	%rbp, 0
	.seh_endprologue
	movq	%rcx, 16(%rbp)
	movq	16(%rbp), %rax
	popq	%rbp
	ret
	.seh_endproc
	.section	.text$_ZN9__gnu_cxx13new_allocatorISt13_Rb_tree_nodeINSt7__cxx1112basic_stringIcSt11char_traitsIcESaIcEEEEE8allocateEyPKv,"x"
	.linkonce discard
	.align 2
	.globl	_ZN9__gnu_cxx13new_allocatorISt13_Rb_tree_nodeINSt7__cxx1112basic_stringIcSt11char_traitsIcESaIcEEEEE8allocateEyPKv
	.def	_ZN9__gnu_cxx13new_allocatorISt13_Rb_tree_nodeINSt7__cxx1112basic_stringIcSt11char_traitsIcESaIcEEEEE8allocateEyPKv;	.scl	2;	.type	32;	.endef
	.seh_proc	_ZN9__gnu_cxx13new_allocatorISt13_Rb_tree_nodeINSt7__cxx1112basic_stringIcSt11char_traitsIcESaIcEEEEE8allocateEyPKv
_ZN9__gnu_cxx13new_allocatorISt13_Rb_tree_nodeINSt7__cxx1112basic_stringIcSt11char_traitsIcESaIcEEEEE8allocateEyPKv:
.LFB3111:
	pushq	%rbp
	.seh_pushreg	%rbp
	movq	%rsp, %rbp
	.seh_setframe	%rbp, 0
	subq	$32, %rsp
	.seh_stackalloc	32
	.seh_endprologue
	movq	%rcx, 16(%rbp)
	movq	%rdx, 24(%rbp)
	movq	%r8, 32(%rbp)
	movq	16(%rbp), %rcx
	call	_ZNK9__gnu_cxx13new_allocatorISt13_Rb_tree_nodeINSt7__cxx1112basic_stringIcSt11char_traitsIcESaIcEEEEE8max_sizeEv
	cmpq	24(%rbp), %rax
	setb	%al
	testb	%al, %al
	je	.L381
	call	_ZSt17__throw_bad_allocv
.L381:
	movq	24(%rbp), %rax
	salq	$6, %rax
	movq	%rax, %rcx
	call	_Znwy
	addq	$32, %rsp
	popq	%rbp
	ret
	.seh_endproc
	.section	.text$_ZN9__gnu_cxx13new_allocatorISt13_Rb_tree_nodeINSt7__cxx1112basic_stringIcSt11char_traitsIcESaIcEEEEE9constructIS7_JRKS7_EEEvPT_DpOT0_,"x"
	.linkonce discard
	.align 2
	.globl	_ZN9__gnu_cxx13new_allocatorISt13_Rb_tree_nodeINSt7__cxx1112basic_stringIcSt11char_traitsIcESaIcEEEEE9constructIS7_JRKS7_EEEvPT_DpOT0_
	.def	_ZN9__gnu_cxx13new_allocatorISt13_Rb_tree_nodeINSt7__cxx1112basic_stringIcSt11char_traitsIcESaIcEEEEE9constructIS7_JRKS7_EEEvPT_DpOT0_;	.scl	2;	.type	32;	.endef
	.seh_proc	_ZN9__gnu_cxx13new_allocatorISt13_Rb_tree_nodeINSt7__cxx1112basic_stringIcSt11char_traitsIcESaIcEEEEE9constructIS7_JRKS7_EEEvPT_DpOT0_
_ZN9__gnu_cxx13new_allocatorISt13_Rb_tree_nodeINSt7__cxx1112basic_stringIcSt11char_traitsIcESaIcEEEEE9constructIS7_JRKS7_EEEvPT_DpOT0_:
.LFB3112:
	pushq	%rbp
	.seh_pushreg	%rbp
	pushq	%rdi
	.seh_pushreg	%rdi
	pushq	%rsi
	.seh_pushreg	%rsi
	pushq	%rbx
	.seh_pushreg	%rbx
	subq	$40, %rsp
	.seh_stackalloc	40
	leaq	128(%rsp), %rbp
	.seh_setframe	%rbp, 128
	.seh_endprologue
	movq	%rcx, -48(%rbp)
	movq	%rdx, -40(%rbp)
	movq	%r8, -32(%rbp)
	movq	-32(%rbp), %rax
	movq	%rax, %rcx
	call	_ZSt7forwardIRKNSt7__cxx1112basic_stringIcSt11char_traitsIcESaIcEEEEOT_RNSt16remove_referenceIS8_E4typeE
	movq	%rax, %rdi
	movq	-40(%rbp), %rsi
	movq	%rsi, %rdx
	movl	$32, %ecx
	call	_ZnwyPv
	movq	%rax, %rbx
	testq	%rbx, %rbx
	je	.L388
	movq	%rdi, %rdx
	movq	%rbx, %rcx
.LEHB34:
	call	_ZNSt7__cxx1112basic_stringIcSt11char_traitsIcESaIcEEC1ERKS4_
.LEHE34:
	jmp	.L388
.L387:
	movq	%rax, %rdi
	movq	%rsi, %rdx
	movq	%rbx, %rcx
	call	_ZdlPvS_
	movq	%rdi, %rax
	movq	%rax, %rcx
.LEHB35:
	call	_Unwind_Resume
.LEHE35:
.L388:
	nop
	addq	$40, %rsp
	popq	%rbx
	popq	%rsi
	popq	%rdi
	popq	%rbp
	ret
	.seh_handler	__gxx_personality_seh0, @unwind, @except
	.seh_handlerdata
.LLSDA3112:
	.byte	0xff
	.byte	0xff
	.byte	0x1
	.uleb128 .LLSDACSE3112-.LLSDACSB3112
.LLSDACSB3112:
	.uleb128 .LEHB34-.LFB3112
	.uleb128 .LEHE34-.LEHB34
	.uleb128 .L387-.LFB3112
	.uleb128 0
	.uleb128 .LEHB35-.LFB3112
	.uleb128 .LEHE35-.LEHB35
	.uleb128 0
	.uleb128 0
.LLSDACSE3112:
	.section	.text$_ZN9__gnu_cxx13new_allocatorISt13_Rb_tree_nodeINSt7__cxx1112basic_stringIcSt11char_traitsIcESaIcEEEEE9constructIS7_JRKS7_EEEvPT_DpOT0_,"x"
	.linkonce discard
	.seh_endproc
	.section	.text$_ZSt11__push_heapIP13Keywords_ratexS0_N9__gnu_cxx5__ops14_Iter_less_valEEvT_T0_S6_T1_T2_,"x"
	.linkonce discard
	.globl	_ZSt11__push_heapIP13Keywords_ratexS0_N9__gnu_cxx5__ops14_Iter_less_valEEvT_T0_S6_T1_T2_
	.def	_ZSt11__push_heapIP13Keywords_ratexS0_N9__gnu_cxx5__ops14_Iter_less_valEEvT_T0_S6_T1_T2_;	.scl	2;	.type	32;	.endef
	.seh_proc	_ZSt11__push_heapIP13Keywords_ratexS0_N9__gnu_cxx5__ops14_Iter_less_valEEvT_T0_S6_T1_T2_
_ZSt11__push_heapIP13Keywords_ratexS0_N9__gnu_cxx5__ops14_Iter_less_valEEvT_T0_S6_T1_T2_:
.LFB3113:
	pushq	%rbp
	.seh_pushreg	%rbp
	pushq	%rbx
	.seh_pushreg	%rbx
	subq	$72, %rsp
	.seh_stackalloc	72
	leaq	128(%rsp), %rbp
	.seh_setframe	%rbp, 128
	.seh_endprologue
	movq	%rcx, -32(%rbp)
	movq	%rdx, -24(%rbp)
	movq	%r8, -16(%rbp)
	movq	%r9, %rbx
	movq	(%rbx), %rax
	movq	8(%rbx), %rdx
	movq	%rax, -96(%rbp)
	movq	%rdx, -88(%rbp)
	movq	-24(%rbp), %rax
	subq	$1, %rax
	movq	%rax, %rdx
	shrq	$63, %rdx
	addq	%rdx, %rax
	sarq	%rax
	movq	%rax, -72(%rbp)
.L393:
	movq	-24(%rbp), %rax
	cmpq	-16(%rbp), %rax
	jle	.L390
	movq	-72(%rbp), %rax
	salq	$4, %rax
	movq	%rax, %rdx
	movq	-32(%rbp), %rax
	addq	%rax, %rdx
	leaq	-96(%rbp), %rcx
	movq	%rbp, %rax
	movq	%rcx, %r8
	movq	%rax, %rcx
	call	_ZNK9__gnu_cxx5__ops14_Iter_less_valclIP13Keywords_rateS3_EEbT_RT0_
	testb	%al, %al
	je	.L390
	movl	$1, %eax
	jmp	.L391
.L390:
	movl	$0, %eax
.L391:
	testb	%al, %al
	je	.L392
	movq	-24(%rbp), %rax
	salq	$4, %rax
	movq	%rax, %rdx
	movq	-32(%rbp), %rax
	leaq	(%rdx,%rax), %rbx
	movq	-72(%rbp), %rax
	salq	$4, %rax
	movq	%rax, %rdx
	movq	-32(%rbp), %rax
	addq	%rdx, %rax
	movq	%rax, %rcx
	call	_ZSt4moveIR13Keywords_rateEONSt16remove_referenceIT_E4typeEOS3_
	movq	8(%rax), %rdx
	movq	(%rax), %rax
	movq	%rax, (%rbx)
	movq	%rdx, 8(%rbx)
	movq	-72(%rbp), %rax
	movq	%rax, -24(%rbp)
	movq	-24(%rbp), %rax
	subq	$1, %rax
	movq	%rax, %rdx
	shrq	$63, %rdx
	addq	%rdx, %rax
	sarq	%rax
	movq	%rax, -72(%rbp)
	jmp	.L393
.L392:
	movq	-24(%rbp), %rax
	salq	$4, %rax
	movq	%rax, %rdx
	movq	-32(%rbp), %rax
	leaq	(%rdx,%rax), %rbx
	leaq	-96(%rbp), %rax
	movq	%rax, %rcx
	call	_ZSt4moveIR13Keywords_rateEONSt16remove_referenceIT_E4typeEOS3_
	movq	8(%rax), %rdx
	movq	(%rax), %rax
	movq	%rax, (%rbx)
	movq	%rdx, 8(%rbx)
	nop
	addq	$72, %rsp
	popq	%rbx
	popq	%rbp
	ret
	.seh_endproc
	.section	.text$_ZNSt20__copy_move_backwardILb1ELb1ESt26random_access_iterator_tagE13__copy_move_bI13Keywords_rateEEPT_PKS4_S7_S5_,"x"
	.linkonce discard
	.globl	_ZNSt20__copy_move_backwardILb1ELb1ESt26random_access_iterator_tagE13__copy_move_bI13Keywords_rateEEPT_PKS4_S7_S5_
	.def	_ZNSt20__copy_move_backwardILb1ELb1ESt26random_access_iterator_tagE13__copy_move_bI13Keywords_rateEEPT_PKS4_S7_S5_;	.scl	2;	.type	32;	.endef
	.seh_proc	_ZNSt20__copy_move_backwardILb1ELb1ESt26random_access_iterator_tagE13__copy_move_bI13Keywords_rateEEPT_PKS4_S7_S5_
_ZNSt20__copy_move_backwardILb1ELb1ESt26random_access_iterator_tagE13__copy_move_bI13Keywords_rateEEPT_PKS4_S7_S5_:
.LFB3114:
	pushq	%rbp
	.seh_pushreg	%rbp
	movq	%rsp, %rbp
	.seh_setframe	%rbp, 0
	subq	$48, %rsp
	.seh_stackalloc	48
	.seh_endprologue
	movq	%rcx, 16(%rbp)
	movq	%rdx, 24(%rbp)
	movq	%r8, 32(%rbp)
	movq	24(%rbp), %rdx
	movq	16(%rbp), %rax
	subq	%rax, %rdx
	movq	%rdx, %rax
	sarq	$4, %rax
	movq	%rax, -8(%rbp)
	cmpq	$0, -8(%rbp)
	je	.L395
	movq	-8(%rbp), %rax
	salq	$4, %rax
	movq	%rax, %rdx
	movq	-8(%rbp), %rax
	salq	$4, %rax
	negq	%rax
	movq	%rax, %rcx
	movq	32(%rbp), %rax
	addq	%rcx, %rax
	movq	%rdx, %r8
	movq	16(%rbp), %rdx
	movq	%rax, %rcx
	call	memmove
.L395:
	movq	-8(%rbp), %rax
	salq	$4, %rax
	negq	%rax
	movq	%rax, %rdx
	movq	32(%rbp), %rax
	addq	%rdx, %rax
	addq	$48, %rsp
	popq	%rbp
	ret
	.seh_endproc
	.section	.text$_ZNK9__gnu_cxx13new_allocatorISt13_Rb_tree_nodeINSt7__cxx1112basic_stringIcSt11char_traitsIcESaIcEEEEE8max_sizeEv,"x"
	.linkonce discard
	.align 2
	.globl	_ZNK9__gnu_cxx13new_allocatorISt13_Rb_tree_nodeINSt7__cxx1112basic_stringIcSt11char_traitsIcESaIcEEEEE8max_sizeEv
	.def	_ZNK9__gnu_cxx13new_allocatorISt13_Rb_tree_nodeINSt7__cxx1112basic_stringIcSt11char_traitsIcESaIcEEEEE8max_sizeEv;	.scl	2;	.type	32;	.endef
	.seh_proc	_ZNK9__gnu_cxx13new_allocatorISt13_Rb_tree_nodeINSt7__cxx1112basic_stringIcSt11char_traitsIcESaIcEEEEE8max_sizeEv
_ZNK9__gnu_cxx13new_allocatorISt13_Rb_tree_nodeINSt7__cxx1112basic_stringIcSt11char_traitsIcESaIcEEEEE8max_sizeEv:
.LFB3115:
	pushq	%rbp
	.seh_pushreg	%rbp
	movq	%rsp, %rbp
	.seh_setframe	%rbp, 0
	.seh_endprologue
	movq	%rcx, 16(%rbp)
	movabsq	$288230376151711743, %rax
	popq	%rbp
	ret
	.seh_endproc
	.section	.text$_ZNK9__gnu_cxx5__ops14_Iter_less_valclIP13Keywords_rateS3_EEbT_RT0_,"x"
	.linkonce discard
	.align 2
	.globl	_ZNK9__gnu_cxx5__ops14_Iter_less_valclIP13Keywords_rateS3_EEbT_RT0_
	.def	_ZNK9__gnu_cxx5__ops14_Iter_less_valclIP13Keywords_rateS3_EEbT_RT0_;	.scl	2;	.type	32;	.endef
	.seh_proc	_ZNK9__gnu_cxx5__ops14_Iter_less_valclIP13Keywords_rateS3_EEbT_RT0_
_ZNK9__gnu_cxx5__ops14_Iter_less_valclIP13Keywords_rateS3_EEbT_RT0_:
.LFB3116:
	pushq	%rbp
	.seh_pushreg	%rbp
	movq	%rsp, %rbp
	.seh_setframe	%rbp, 0
	subq	$32, %rsp
	.seh_stackalloc	32
	.seh_endprologue
	movq	%rcx, 16(%rbp)
	movq	%rdx, 24(%rbp)
	movq	%r8, 32(%rbp)
	movq	32(%rbp), %rdx
	movq	24(%rbp), %rax
	movq	%rax, %rcx
	call	_ZN13Keywords_rateltERKS_
	addq	$32, %rsp
	popq	%rbp
	ret
	.seh_endproc
	.text
	.def	__tcf_0;	.scl	3;	.type	32;	.endef
	.seh_proc	__tcf_0
__tcf_0:
.LFB3118:
	pushq	%rbp
	.seh_pushreg	%rbp
	movq	%rsp, %rbp
	.seh_setframe	%rbp, 0
	subq	$32, %rsp
	.seh_stackalloc	32
	.seh_endprologue
	leaq	_ZStL8__ioinit(%rip), %rcx
	call	_ZNSt8ios_base4InitD1Ev
	nop
	addq	$32, %rsp
	popq	%rbp
	ret
	.seh_endproc
	.def	__tcf_1;	.scl	3;	.type	32;	.endef
	.seh_proc	__tcf_1
__tcf_1:
.LFB3119:
	pushq	%rbp
	.seh_pushreg	%rbp
	pushq	%rbx
	.seh_pushreg	%rbx
	subq	$40, %rsp
	.seh_stackalloc	40
	leaq	128(%rsp), %rbp
	.seh_setframe	%rbp, 128
	.seh_endprologue
	leaq	704000+_Z5wordsB5cxx11(%rip), %rbx
.L404:
	leaq	_Z5wordsB5cxx11(%rip), %rax
	cmpq	%rax, %rbx
	je	.L402
	subq	$32, %rbx
	movq	%rbx, %rcx
	call	_ZNSt7__cxx1112basic_stringIcSt11char_traitsIcESaIcEED1Ev
	jmp	.L404
.L402:
	addq	$40, %rsp
	popq	%rbx
	popq	%rbp
	ret
	.seh_endproc
	.def	__tcf_2;	.scl	3;	.type	32;	.endef
	.seh_proc	__tcf_2
__tcf_2:
.LFB3120:
	pushq	%rbp
	.seh_pushreg	%rbp
	pushq	%rbx
	.seh_pushreg	%rbx
	subq	$40, %rsp
	.seh_stackalloc	40
	leaq	128(%rsp), %rbp
	.seh_setframe	%rbp, 128
	.seh_endprologue
	leaq	11520+_Z8keywordsB5cxx11(%rip), %rbx
.L407:
	leaq	_Z8keywordsB5cxx11(%rip), %rax
	cmpq	%rax, %rbx
	je	.L405
	subq	$32, %rbx
	movq	%rbx, %rcx
	call	_ZNSt7__cxx1112basic_stringIcSt11char_traitsIcESaIcEED1Ev
	jmp	.L407
.L405:
	addq	$40, %rsp
	popq	%rbx
	popq	%rbp
	ret
	.seh_endproc
	.section	.text$_ZNSt3setINSt7__cxx1112basic_stringIcSt11char_traitsIcESaIcEEESt4lessIS5_ESaIS5_EED1Ev,"x"
	.linkonce discard
	.align 2
	.globl	_ZNSt3setINSt7__cxx1112basic_stringIcSt11char_traitsIcESaIcEEESt4lessIS5_ESaIS5_EED1Ev
	.def	_ZNSt3setINSt7__cxx1112basic_stringIcSt11char_traitsIcESaIcEEESt4lessIS5_ESaIS5_EED1Ev;	.scl	2;	.type	32;	.endef
	.seh_proc	_ZNSt3setINSt7__cxx1112basic_stringIcSt11char_traitsIcESaIcEEESt4lessIS5_ESaIS5_EED1Ev
_ZNSt3setINSt7__cxx1112basic_stringIcSt11char_traitsIcESaIcEEESt4lessIS5_ESaIS5_EED1Ev:
.LFB3123:
	pushq	%rbp
	.seh_pushreg	%rbp
	movq	%rsp, %rbp
	.seh_setframe	%rbp, 0
	subq	$32, %rsp
	.seh_stackalloc	32
	.seh_endprologue
	movq	%rcx, 16(%rbp)
	movq	16(%rbp), %rax
	movq	%rax, %rcx
	call	_ZNSt8_Rb_treeINSt7__cxx1112basic_stringIcSt11char_traitsIcESaIcEEES5_St9_IdentityIS5_ESt4lessIS5_ESaIS5_EED1Ev
	nop
	addq	$32, %rsp
	popq	%rbp
	ret
	.seh_endproc
	.text
	.def	__tcf_3;	.scl	3;	.type	32;	.endef
	.seh_proc	__tcf_3
__tcf_3:
.LFB3124:
	pushq	%rbp
	.seh_pushreg	%rbp
	movq	%rsp, %rbp
	.seh_setframe	%rbp, 0
	subq	$32, %rsp
	.seh_stackalloc	32
	.seh_endprologue
	leaq	_Z12invalid_dictB5cxx11(%rip), %rcx
	call	_ZNSt3setINSt7__cxx1112basic_stringIcSt11char_traitsIcESaIcEEESt4lessIS5_ESaIS5_EED1Ev
	nop
	addq	$32, %rsp
	popq	%rbp
	ret
	.seh_endproc
	.def	_Z41__static_initialization_and_destruction_0ii;	.scl	3;	.type	32;	.endef
	.seh_proc	_Z41__static_initialization_and_destruction_0ii
_Z41__static_initialization_and_destruction_0ii:
.LFB3117:
	pushq	%rbp
	.seh_pushreg	%rbp
	pushq	%rsi
	.seh_pushreg	%rsi
	pushq	%rbx
	.seh_pushreg	%rbx
	movq	%rsp, %rbp
	.seh_setframe	%rbp, 0
	subq	$32, %rsp
	.seh_stackalloc	32
	.seh_endprologue
	movl	%ecx, 32(%rbp)
	movl	%edx, 40(%rbp)
	cmpl	$1, 32(%rbp)
	jne	.L416
	cmpl	$65535, 40(%rbp)
	jne	.L416
	leaq	_ZStL8__ioinit(%rip), %rcx
	call	_ZNSt8ios_base4InitC1Ev
	leaq	__tcf_0(%rip), %rcx
	call	atexit
	leaq	_Z5wordsB5cxx11(%rip), %rax
	movl	$21999, %ebx
	movq	%rax, %rsi
.L413:
	testq	%rbx, %rbx
	js	.L412
	movq	%rsi, %rcx
	call	_ZNSt7__cxx1112basic_stringIcSt11char_traitsIcESaIcEEC1Ev
	addq	$32, %rsi
	subq	$1, %rbx
	jmp	.L413
.L412:
	leaq	__tcf_1(%rip), %rcx
	call	atexit
	leaq	_Z8keywordsB5cxx11(%rip), %rax
	movl	$359, %ebx
	movq	%rax, %rsi
.L415:
	testq	%rbx, %rbx
	js	.L414
	movq	%rsi, %rcx
	call	_ZNSt7__cxx1112basic_stringIcSt11char_traitsIcESaIcEEC1Ev
	addq	$32, %rsi
	subq	$1, %rbx
	jmp	.L415
.L414:
	leaq	__tcf_2(%rip), %rcx
	call	atexit
	leaq	_Z12invalid_dictB5cxx11(%rip), %rcx
	call	_ZNSt3setINSt7__cxx1112basic_stringIcSt11char_traitsIcESaIcEEESt4lessIS5_ESaIS5_EEC1Ev
	leaq	__tcf_3(%rip), %rcx
	call	atexit
.L416:
	nop
	addq	$32, %rsp
	popq	%rbx
	popq	%rsi
	popq	%rbp
	ret
	.seh_endproc
	.def	_GLOBAL__sub_I__Z5wordsB5cxx11;	.scl	3;	.type	32;	.endef
	.seh_proc	_GLOBAL__sub_I__Z5wordsB5cxx11
_GLOBAL__sub_I__Z5wordsB5cxx11:
.LFB3125:
	pushq	%rbp
	.seh_pushreg	%rbp
	movq	%rsp, %rbp
	.seh_setframe	%rbp, 0
	subq	$32, %rsp
	.seh_stackalloc	32
	.seh_endprologue
	movl	$65535, %edx
	movl	$1, %ecx
	call	_Z41__static_initialization_and_destruction_0ii
	nop
	addq	$32, %rsp
	popq	%rbp
	ret
	.seh_endproc
	.section	.ctors,"w"
	.align 8
	.quad	_GLOBAL__sub_I__Z5wordsB5cxx11
	.section .rdata,"dr"
	.align 8
.LC9:
	.long	0
	.long	1072693248
	.ident	"GCC: (Rev2, Built by MSYS2 project) 6.2.0"
	.def	memcmp;	.scl	2;	.type	32;	.endef
	.def	_ZNSt14basic_ifstreamIcSt11char_traitsIcEEC1Ev;	.scl	2;	.type	32;	.endef
	.def	_ZNSt14basic_ifstreamIcSt11char_traitsIcEE4openEPKcSt13_Ios_Openmode;	.scl	2;	.type	32;	.endef
	.def	_ZNKSt9basic_iosIcSt11char_traitsIcEE4goodEv;	.scl	2;	.type	32;	.endef
	.def	_ZStlsISt11char_traitsIcEERSt13basic_ostreamIcT_ES5_PKc;	.scl	2;	.type	32;	.endef
	.def	exit;	.scl	2;	.type	32;	.endef
	.def	_ZStrsIcSt11char_traitsIcESaIcEERSt13basic_istreamIT_T0_ES7_RNSt7__cxx1112basic_stringIS4_S5_T1_EE;	.scl	2;	.type	32;	.endef
	.def	_ZNKSt9basic_iosIcSt11char_traitsIcEEcvbEv;	.scl	2;	.type	32;	.endef
	.def	_ZNSirsERd;	.scl	2;	.type	32;	.endef
	.def	_ZNSt14basic_ifstreamIcSt11char_traitsIcEE5closeEv;	.scl	2;	.type	32;	.endef
	.def	_ZNSt14basic_ifstreamIcSt11char_traitsIcEED1Ev;	.scl	2;	.type	32;	.endef
	.def	_Unwind_Resume;	.scl	2;	.type	32;	.endef
	.def	_ZNSi7getlineEPcx;	.scl	2;	.type	32;	.endef
	.def	_ZNSt7__cxx1112basic_stringIcSt11char_traitsIcESaIcEEaSEPKc;	.scl	2;	.type	32;	.endef
	.def	_ZNSt14basic_ofstreamIcSt11char_traitsIcEEC1Ev;	.scl	2;	.type	32;	.endef
	.def	_ZNSt14basic_ofstreamIcSt11char_traitsIcEE4openEPKcSt13_Ios_Openmode;	.scl	2;	.type	32;	.endef
	.def	_ZN4WordC1EPKcdi;	.scl	2;	.type	32;	.endef
	.def	_ZNSirsERi;	.scl	2;	.type	32;	.endef
	.def	_ZNSi3getEv;	.scl	2;	.type	32;	.endef
	.def	_ZStrsIcSt11char_traitsIcEERSt13basic_istreamIT_T0_ES6_PS3_;	.scl	2;	.type	32;	.endef
	.def	strlen;	.scl	2;	.type	32;	.endef
	.def	_ZN4WordeqERKS_;	.scl	2;	.type	32;	.endef
	.def	_ZNSolsEi;	.scl	2;	.type	32;	.endef
	.def	_ZNSolsEPFRSoS_E;	.scl	2;	.type	32;	.endef
	.def	_ZNSi4peekEv;	.scl	2;	.type	32;	.endef
	.def	_ZNSt14basic_ofstreamIcSt11char_traitsIcEE5closeEv;	.scl	2;	.type	32;	.endef
	.def	_ZNSt14basic_ofstreamIcSt11char_traitsIcEED1Ev;	.scl	2;	.type	32;	.endef
	.def	_ZNSt7__cxx1112basic_stringIcSt11char_traitsIcESaIcEEC1Ev;	.scl	2;	.type	32;	.endef
	.def	_ZNSt7__cxx1112basic_stringIcSt11char_traitsIcESaIcEED1Ev;	.scl	2;	.type	32;	.endef
	.def	_ZNSt9basic_iosIcSt11char_traitsIcEE5clearESt12_Ios_Iostate;	.scl	2;	.type	32;	.endef
	.def	_ZNSi5seekgExSt12_Ios_Seekdir;	.scl	2;	.type	32;	.endef
	.def	_ZStlsIcSt11char_traitsIcESaIcEERSt13basic_ostreamIT_T0_ES7_RKNSt7__cxx1112basic_stringIS4_S5_T1_EE;	.scl	2;	.type	32;	.endef
	.def	_ZNSi4readEPcx;	.scl	2;	.type	32;	.endef
	.def	_ZNSolsEd;	.scl	2;	.type	32;	.endef
	.def	_ZStlsISt11char_traitsIcEERSt13basic_ostreamIcT_ES5_c;	.scl	2;	.type	32;	.endef
	.def	memset;	.scl	2;	.type	32;	.endef
	.def	_ZNKSt7__cxx1112basic_stringIcSt11char_traitsIcESaIcEE4sizeEv;	.scl	2;	.type	32;	.endef
	.def	_ZNKSt7__cxx1112basic_stringIcSt11char_traitsIcESaIcEE4dataEv;	.scl	2;	.type	32;	.endef
	.def	_ZNKSt7__cxx1112basic_stringIcSt11char_traitsIcESaIcEE7compareERKS4_;	.scl	2;	.type	32;	.endef
	.def	_ZSt29_Rb_tree_insert_and_rebalancebPSt18_Rb_tree_node_baseS0_RS_;	.scl	2;	.type	32;	.endef
	.def	_ZSt18_Rb_tree_decrementPSt18_Rb_tree_node_base;	.scl	2;	.type	32;	.endef
	.def	__cxa_begin_catch;	.scl	2;	.type	32;	.endef
	.def	__cxa_rethrow;	.scl	2;	.type	32;	.endef
	.def	__cxa_end_catch;	.scl	2;	.type	32;	.endef
	.def	_ZdlPv;	.scl	2;	.type	32;	.endef
	.def	_ZSt17__throw_bad_allocv;	.scl	2;	.type	32;	.endef
	.def	_Znwy;	.scl	2;	.type	32;	.endef
	.def	_ZNSt7__cxx1112basic_stringIcSt11char_traitsIcESaIcEEC1ERKS4_;	.scl	2;	.type	32;	.endef
	.def	memmove;	.scl	2;	.type	32;	.endef
	.def	_ZNSt8ios_base4InitD1Ev;	.scl	2;	.type	32;	.endef
	.def	_ZNSt8ios_base4InitC1Ev;	.scl	2;	.type	32;	.endef
	.def	atexit;	.scl	2;	.type	32;	.endef
	.section	.rdata$.refptr._ZSt4endlIcSt11char_traitsIcEERSt13basic_ostreamIT_T0_ES6_, "dr"
	.globl	.refptr._ZSt4endlIcSt11char_traitsIcEERSt13basic_ostreamIT_T0_ES6_
	.linkonce	discard
.refptr._ZSt4endlIcSt11char_traitsIcEERSt13basic_ostreamIT_T0_ES6_:
	.quad	_ZSt4endlIcSt11char_traitsIcEERSt13basic_ostreamIT_T0_ES6_
	.section	.rdata$.refptr._ZSt4cout, "dr"
	.globl	.refptr._ZSt4cout
	.linkonce	discard
.refptr._ZSt4cout:
	.quad	_ZSt4cout
